
../bin/PARSIR-simulator:     file format elf64-x86-64


Disassembly of section .init:

0000000000002000 <_init>:
    2000:	f3 0f 1e fa          	endbr64
    2004:	48 83 ec 08          	sub    $0x8,%rsp
    2008:	48 8b 05 b1 2f 05 00 	mov    0x52fb1(%rip),%rax        # 54fc0 <__gmon_start__>
    200f:	48 85 c0             	test   %rax,%rax
    2012:	74 02                	je     2016 <_init+0x16>
    2014:	ff d0                	call   *%rax
    2016:	48 83 c4 08          	add    $0x8,%rsp
    201a:	c3                   	ret

Disassembly of section .plt:

0000000000002020 <pthread_setaffinity_np@plt-0x10>:
    2020:	ff 35 ca 2f 05 00    	push   0x52fca(%rip)        # 54ff0 <_GLOBAL_OFFSET_TABLE_+0x8>
    2026:	ff 25 cc 2f 05 00    	jmp    *0x52fcc(%rip)        # 54ff8 <_GLOBAL_OFFSET_TABLE_+0x10>
    202c:	0f 1f 40 00          	nopl   0x0(%rax)

0000000000002030 <pthread_setaffinity_np@plt>:
    2030:	ff 25 ca 2f 05 00    	jmp    *0x52fca(%rip)        # 55000 <pthread_setaffinity_np@GLIBC_2.34>
    2036:	68 00 00 00 00       	push   $0x0
    203b:	e9 e0 ff ff ff       	jmp    2020 <_init+0x20>

0000000000002040 <printf@plt>:
    2040:	ff 25 c2 2f 05 00    	jmp    *0x52fc2(%rip)        # 55008 <printf@GLIBC_2.2.5>
    2046:	68 01 00 00 00       	push   $0x1
    204b:	e9 d0 ff ff ff       	jmp    2020 <_init+0x20>

0000000000002050 <pthread_spin_lock@plt>:
    2050:	ff 25 ba 2f 05 00    	jmp    *0x52fba(%rip)        # 55010 <pthread_spin_lock@GLIBC_2.34>
    2056:	68 02 00 00 00       	push   $0x2
    205b:	e9 c0 ff ff ff       	jmp    2020 <_init+0x20>

0000000000002060 <memset@plt>:
    2060:	ff 25 b2 2f 05 00    	jmp    *0x52fb2(%rip)        # 55018 <memset@GLIBC_2.2.5>
    2066:	68 03 00 00 00       	push   $0x3
    206b:	e9 b0 ff ff ff       	jmp    2020 <_init+0x20>

0000000000002070 <abort@plt>:
    2070:	ff 25 aa 2f 05 00    	jmp    *0x52faa(%rip)        # 55020 <abort@GLIBC_2.2.5>
    2076:	68 04 00 00 00       	push   $0x4
    207b:	e9 a0 ff ff ff       	jmp    2020 <_init+0x20>

0000000000002080 <puts@plt>:
    2080:	ff 25 a2 2f 05 00    	jmp    *0x52fa2(%rip)        # 55028 <puts@GLIBC_2.2.5>
    2086:	68 05 00 00 00       	push   $0x5
    208b:	e9 90 ff ff ff       	jmp    2020 <_init+0x20>

0000000000002090 <fseek@plt>:
    2090:	ff 25 9a 2f 05 00    	jmp    *0x52f9a(%rip)        # 55030 <fseek@GLIBC_2.2.5>
    2096:	68 06 00 00 00       	push   $0x6
    209b:	e9 80 ff ff ff       	jmp    2020 <_init+0x20>

00000000000020a0 <mbind@plt>:
    20a0:	ff 25 92 2f 05 00    	jmp    *0x52f92(%rip)        # 55038 <mbind@libnuma_1.1>
    20a6:	68 07 00 00 00       	push   $0x7
    20ab:	e9 70 ff ff ff       	jmp    2020 <_init+0x20>

00000000000020b0 <exit@plt>:
    20b0:	ff 25 8a 2f 05 00    	jmp    *0x52f8a(%rip)        # 55040 <exit@GLIBC_2.2.5>
    20b6:	68 08 00 00 00       	push   $0x8
    20bb:	e9 60 ff ff ff       	jmp    2020 <_init+0x20>

00000000000020c0 <putchar@plt>:
    20c0:	ff 25 82 2f 05 00    	jmp    *0x52f82(%rip)        # 55048 <putchar@GLIBC_2.2.5>
    20c6:	68 09 00 00 00       	push   $0x9
    20cb:	e9 50 ff ff ff       	jmp    2020 <_init+0x20>

00000000000020d0 <malloc@plt>:
    20d0:	ff 25 7a 2f 05 00    	jmp    *0x52f7a(%rip)        # 55050 <malloc@GLIBC_2.2.5>
    20d6:	68 0a 00 00 00       	push   $0xa
    20db:	e9 40 ff ff ff       	jmp    2020 <_init+0x20>

00000000000020e0 <fopen@plt>:
    20e0:	ff 25 72 2f 05 00    	jmp    *0x52f72(%rip)        # 55058 <fopen@GLIBC_2.2.5>
    20e6:	68 0b 00 00 00       	push   $0xb
    20eb:	e9 30 ff ff ff       	jmp    2020 <_init+0x20>

00000000000020f0 <__isoc23_fscanf@plt>:
    20f0:	ff 25 6a 2f 05 00    	jmp    *0x52f6a(%rip)        # 55060 <__isoc23_fscanf@GLIBC_2.38>
    20f6:	68 0c 00 00 00       	push   $0xc
    20fb:	e9 20 ff ff ff       	jmp    2020 <_init+0x20>

0000000000002100 <sysconf@plt>:
    2100:	ff 25 62 2f 05 00    	jmp    *0x52f62(%rip)        # 55068 <sysconf@GLIBC_2.2.5>
    2106:	68 0d 00 00 00       	push   $0xd
    210b:	e9 10 ff ff ff       	jmp    2020 <_init+0x20>

0000000000002110 <fgets@plt>:
    2110:	ff 25 5a 2f 05 00    	jmp    *0x52f5a(%rip)        # 55070 <fgets@GLIBC_2.2.5>
    2116:	68 0e 00 00 00       	push   $0xe
    211b:	e9 00 ff ff ff       	jmp    2020 <_init+0x20>

0000000000002120 <pthread_create@plt>:
    2120:	ff 25 52 2f 05 00    	jmp    *0x52f52(%rip)        # 55078 <pthread_create@GLIBC_2.34>
    2126:	68 0f 00 00 00       	push   $0xf
    212b:	e9 f0 fe ff ff       	jmp    2020 <_init+0x20>

0000000000002130 <free@plt>:
    2130:	ff 25 4a 2f 05 00    	jmp    *0x52f4a(%rip)        # 55080 <free@GLIBC_2.2.5>
    2136:	68 10 00 00 00       	push   $0x10
    213b:	e9 e0 fe ff ff       	jmp    2020 <_init+0x20>

0000000000002140 <strlen@plt>:
    2140:	ff 25 42 2f 05 00    	jmp    *0x52f42(%rip)        # 55088 <strlen@GLIBC_2.2.5>
    2146:	68 11 00 00 00       	push   $0x11
    214b:	e9 d0 fe ff ff       	jmp    2020 <_init+0x20>

0000000000002150 <pthread_spin_init@plt>:
    2150:	ff 25 3a 2f 05 00    	jmp    *0x52f3a(%rip)        # 55090 <pthread_spin_init@GLIBC_2.34>
    2156:	68 12 00 00 00       	push   $0x12
    215b:	e9 c0 fe ff ff       	jmp    2020 <_init+0x20>

0000000000002160 <syscall@plt>:
    2160:	ff 25 32 2f 05 00    	jmp    *0x52f32(%rip)        # 55098 <syscall@GLIBC_2.2.5>
    2166:	68 13 00 00 00       	push   $0x13
    216b:	e9 b0 fe ff ff       	jmp    2020 <_init+0x20>

0000000000002170 <sleep@plt>:
    2170:	ff 25 2a 2f 05 00    	jmp    *0x52f2a(%rip)        # 550a0 <sleep@GLIBC_2.2.5>
    2176:	68 14 00 00 00       	push   $0x14
    217b:	e9 a0 fe ff ff       	jmp    2020 <_init+0x20>

0000000000002180 <pthread_self@plt>:
    2180:	ff 25 22 2f 05 00    	jmp    *0x52f22(%rip)        # 550a8 <pthread_self@GLIBC_2.2.5>
    2186:	68 15 00 00 00       	push   $0x15
    218b:	e9 90 fe ff ff       	jmp    2020 <_init+0x20>

0000000000002190 <pthread_spin_unlock@plt>:
    2190:	ff 25 1a 2f 05 00    	jmp    *0x52f1a(%rip)        # 550b0 <pthread_spin_unlock@GLIBC_2.34>
    2196:	68 16 00 00 00       	push   $0x16
    219b:	e9 80 fe ff ff       	jmp    2020 <_init+0x20>

00000000000021a0 <strstr@plt>:
    21a0:	ff 25 12 2f 05 00    	jmp    *0x52f12(%rip)        # 550b8 <strstr@GLIBC_2.2.5>
    21a6:	68 17 00 00 00       	push   $0x17
    21ab:	e9 70 fe ff ff       	jmp    2020 <_init+0x20>

00000000000021b0 <memmove@plt>:
    21b0:	ff 25 0a 2f 05 00    	jmp    *0x52f0a(%rip)        # 550c0 <memmove@GLIBC_2.2.5>
    21b6:	68 18 00 00 00       	push   $0x18
    21bb:	e9 60 fe ff ff       	jmp    2020 <_init+0x20>

00000000000021c0 <strchr@plt>:
    21c0:	ff 25 02 2f 05 00    	jmp    *0x52f02(%rip)        # 550c8 <strchr@GLIBC_2.2.5>
    21c6:	68 19 00 00 00       	push   $0x19
    21cb:	e9 50 fe ff ff       	jmp    2020 <_init+0x20>

00000000000021d0 <__errno_location@plt>:
    21d0:	ff 25 fa 2e 05 00    	jmp    *0x52efa(%rip)        # 550d0 <__errno_location@GLIBC_2.2.5>
    21d6:	68 1a 00 00 00       	push   $0x1a
    21db:	e9 40 fe ff ff       	jmp    2020 <_init+0x20>

00000000000021e0 <__stack_chk_fail@plt>:
    21e0:	ff 25 f2 2e 05 00    	jmp    *0x52ef2(%rip)        # 550d8 <__stack_chk_fail@GLIBC_2.4>
    21e6:	68 1b 00 00 00       	push   $0x1b
    21eb:	e9 30 fe ff ff       	jmp    2020 <_init+0x20>

00000000000021f0 <strcmp@plt>:
    21f0:	ff 25 ea 2e 05 00    	jmp    *0x52eea(%rip)        # 550e0 <strcmp@GLIBC_2.2.5>
    21f6:	68 1c 00 00 00       	push   $0x1c
    21fb:	e9 20 fe ff ff       	jmp    2020 <_init+0x20>

0000000000002200 <__isoc23_strtol@plt>:
    2200:	ff 25 e2 2e 05 00    	jmp    *0x52ee2(%rip)        # 550e8 <__isoc23_strtol@GLIBC_2.38>
    2206:	68 1d 00 00 00       	push   $0x1d
    220b:	e9 10 fe ff ff       	jmp    2020 <_init+0x20>

0000000000002210 <strcpy@plt>:
    2210:	ff 25 da 2e 05 00    	jmp    *0x52eda(%rip)        # 550f0 <strcpy@GLIBC_2.2.5>
    2216:	68 1e 00 00 00       	push   $0x1e
    221b:	e9 00 fe ff ff       	jmp    2020 <_init+0x20>

0000000000002220 <strtok@plt>:
    2220:	ff 25 d2 2e 05 00    	jmp    *0x52ed2(%rip)        # 550f8 <strtok@GLIBC_2.2.5>
    2226:	68 1f 00 00 00       	push   $0x1f
    222b:	e9 f0 fd ff ff       	jmp    2020 <_init+0x20>

0000000000002230 <fclose@plt>:
    2230:	ff 25 ca 2e 05 00    	jmp    *0x52eca(%rip)        # 55100 <fclose@GLIBC_2.2.5>
    2236:	68 20 00 00 00       	push   $0x20
    223b:	e9 e0 fd ff ff       	jmp    2020 <_init+0x20>

0000000000002240 <perror@plt>:
    2240:	ff 25 c2 2e 05 00    	jmp    *0x52ec2(%rip)        # 55108 <perror@GLIBC_2.2.5>
    2246:	68 21 00 00 00       	push   $0x21
    224b:	e9 d0 fd ff ff       	jmp    2020 <_init+0x20>

0000000000002250 <fprintf@plt>:
    2250:	ff 25 ba 2e 05 00    	jmp    *0x52eba(%rip)        # 55110 <fprintf@GLIBC_2.2.5>
    2256:	68 22 00 00 00       	push   $0x22
    225b:	e9 c0 fd ff ff       	jmp    2020 <_init+0x20>

0000000000002260 <__isoc23_strtoul@plt>:
    2260:	ff 25 b2 2e 05 00    	jmp    *0x52eb2(%rip)        # 55118 <__isoc23_strtoul@GLIBC_2.38>
    2266:	68 23 00 00 00       	push   $0x23
    226b:	e9 b0 fd ff ff       	jmp    2020 <_init+0x20>

0000000000002270 <pow@plt>:
    2270:	ff 25 aa 2e 05 00    	jmp    *0x52eaa(%rip)        # 55120 <pow@GLIBC_2.29>
    2276:	68 24 00 00 00       	push   $0x24
    227b:	e9 a0 fd ff ff       	jmp    2020 <_init+0x20>

0000000000002280 <memcpy@plt>:
    2280:	ff 25 a2 2e 05 00    	jmp    *0x52ea2(%rip)        # 55128 <memcpy@GLIBC_2.14>
    2286:	68 25 00 00 00       	push   $0x25
    228b:	e9 90 fd ff ff       	jmp    2020 <_init+0x20>

0000000000002290 <mmap@plt>:
    2290:	ff 25 9a 2e 05 00    	jmp    *0x52e9a(%rip)        # 55130 <mmap@GLIBC_2.2.5>
    2296:	68 26 00 00 00       	push   $0x26
    229b:	e9 80 fd ff ff       	jmp    2020 <_init+0x20>

00000000000022a0 <fflush@plt>:
    22a0:	ff 25 92 2e 05 00    	jmp    *0x52e92(%rip)        # 55138 <fflush@GLIBC_2.2.5>
    22a6:	68 27 00 00 00       	push   $0x27
    22ab:	e9 70 fd ff ff       	jmp    2020 <_init+0x20>

Disassembly of section .text:

0000000000010000 <main.cold>:
   10000:	48 8d 3d 15 25 04 00 	lea    0x42515(%rip),%rdi        # 5251c <_IO_stdin_used+0x151c>
   10007:	e8 34 22 ff ff       	call   2240 <perror@plt>
   1000c:	bf 01 00 00 00       	mov    $0x1,%edi
   10011:	e8 9a 20 ff ff       	call   20b0 <exit@plt>
   10016:	66 2e 0f 1f 84 00 00 00 00 00 	cs nopw 0x0(%rax,%rax,1)

0000000000010020 <main>:
   10020:	41 57                	push   %r15
   10022:	41 56                	push   %r14
   10024:	4c 8d 35 35 a3 9a 11 	lea    0x119aa335(%rip),%r14        # 119ba360 <cpu_id_per_numa_node>
   1002b:	41 55                	push   %r13
   1002d:	4c 8d 2d 6c e3 a2 11 	lea    0x11a2e36c(%rip),%r13        # 11a3e3a0 <startup_info>
   10034:	41 54                	push   %r12
   10036:	4c 8d 25 23 9f 9a 11 	lea    0x119a9f23(%rip),%r12        # 119b9f60 <c>
   1003d:	55                   	push   %rbp
   1003e:	66 49 0f 6e cc       	movq   %r12,%xmm1
   10043:	48 8d 2d 16 9b 9a 11 	lea    0x119a9b16(%rip),%rbp        # 119b9b60 <max>
   1004a:	53                   	push   %rbx
   1004b:	4c 89 eb             	mov    %r13,%rbx
   1004e:	48 83 ec 58          	sub    $0x58,%rsp
   10052:	64 4c 8b 3c 25 28 00 00 00 	mov    %fs:0x28,%r15
   1005b:	4c 89 7c 24 48       	mov    %r15,0x48(%rsp)
   10060:	4c 8d 3d f9 9c 9a 11 	lea    0x119a9cf9(%rip),%r15        # 119b9d60 <min>
   10067:	66 49 0f 6e df       	movq   %r15,%xmm3
   1006c:	66 0f 6c cb          	punpcklqdq %xmm3,%xmm1
   10070:	0f 29 0c 24          	movaps %xmm1,(%rsp)
   10074:	e8 37 60 00 00       	call   160b0 <get_hw_config>
   10079:	e8 92 28 00 00       	call   12910 <queue_init>
   1007e:	e8 7d 49 00 00       	call   14a00 <allocators_base_init>
   10083:	f2 0f 10 05 4d 23 04 00 	movsd  0x4234d(%rip),%xmm0        # 523d8 <_IO_stdin_used+0x13d8>
   1008b:	b8 01 00 00 00       	mov    $0x1,%eax
   10090:	48 8d 3d 54 24 04 00 	lea    0x42454(%rip),%rdi        # 524eb <_IO_stdin_used+0x14eb>
   10097:	e8 a4 1f ff ff       	call   2040 <printf@plt>
   1009c:	66 0f ef c0          	pxor   %xmm0,%xmm0
   100a0:	b8 01 00 00 00       	mov    $0x1,%eax
   100a5:	f3 0f 10 15 57 0f 04 00 	movss  0x40f57(%rip),%xmm2        # 51004 <_IO_stdin_used+0x4>
   100ad:	f3 0f 2a 05 ab a2 a2 11 	cvtsi2ssl 0x11a2a2ab(%rip),%xmm0        # 11a3a360 <NUMA_NODES>
   100b5:	48 8d 3d 45 24 04 00 	lea    0x42445(%rip),%rdi        # 52501 <_IO_stdin_used+0x1501>
   100bc:	f3 0f 5e d0          	divss  %xmm0,%xmm2
   100c0:	f3 0f 5a d2          	cvtss2sd %xmm2,%xmm2
   100c4:	66 0f 28 c2          	movapd %xmm2,%xmm0
   100c8:	f2 0f 11 54 24 10    	movsd  %xmm2,0x10(%rsp)
   100ce:	e8 6d 1f ff ff       	call   2040 <printf@plt>
   100d3:	66 0f 6f 0c 24       	movdqa (%rsp),%xmm1
   100d8:	31 ff                	xor    %edi,%edi
   100da:	45 31 c9             	xor    %r9d,%r9d
   100dd:	f2 0f 10 54 24 10    	movsd  0x10(%rsp),%xmm2
   100e3:	4c 89 6c 24 18       	mov    %r13,0x18(%rsp)
   100e8:	31 d2                	xor    %edx,%edx
   100ea:	45 31 ed             	xor    %r13d,%r13d
   100ed:	8d 87 80 00 00 00    	lea    0x80(%rdi),%eax
   100f3:	44 8d 5f 7f          	lea    0x7f(%rdi),%r11d
   100f7:	4c 89 0b             	mov    %r9,(%rbx)
   100fa:	89 44 24 38          	mov    %eax,0x38(%rsp)
   100fe:	8b 05 5c a2 a2 11    	mov    0x11a2a25c(%rip),%eax        # 11a3a360 <NUMA_NODES>
   10104:	89 7b 08             	mov    %edi,0x8(%rbx)
   10107:	44 89 5b 0c          	mov    %r11d,0xc(%rbx)
   1010b:	89 04 24             	mov    %eax,(%rsp)
   1010e:	83 f8 01             	cmp    $0x1,%eax
   10111:	0f 85 5a 04 00 00    	jne    10571 <main+0x551>
   10117:	43 8b 04 8e          	mov    (%r14,%r9,4),%eax
   1011b:	48 89 6b 30          	mov    %rbp,0x30(%rbx)
   1011f:	49 8d 49 01          	lea    0x1(%r9),%rcx
   10123:	c7 43 14 01 00 00 00 	movl   $0x1,0x14(%rbx)
   1012a:	4c 8b 6c 24 18       	mov    0x18(%rsp),%r13
   1012f:	89 43 10             	mov    %eax,0x10(%rbx)
   10132:	c7 43 18 00 00 00 00 	movl   $0x0,0x18(%rbx)
   10139:	0f 11 4b 20          	movups %xmm1,0x20(%rbx)
   1013d:	49 83 f9 07          	cmp    $0x7,%r9
   10141:	0f 84 63 02 00 00    	je     103aa <main+0x38a>
   10147:	48 6b f1 38          	imul   $0x38,%rcx,%rsi
   1014b:	8b 54 24 38          	mov    0x38(%rsp),%edx
   1014f:	48 8d 1d 4a e2 a2 11 	lea    0x11a2e24a(%rip),%rbx        # 11a3e3a0 <startup_info>
   10156:	41 b8 ff 03 00 00    	mov    $0x3ff,%r8d
   1015c:	89 54 33 08          	mov    %edx,0x8(%rbx,%rsi,1)
   10160:	8d 97 ff 00 00 00    	lea    0xff(%rdi),%edx
   10166:	44 39 c2             	cmp    %r8d,%edx
   10169:	48 89 0c 33          	mov    %rcx,(%rbx,%rsi,1)
   1016d:	41 0f 4f d0          	cmovg  %r8d,%edx
   10171:	c7 44 33 14 01 00 00 00 	movl   $0x1,0x14(%rbx,%rsi,1)
   10179:	48 89 6c 33 30       	mov    %rbp,0x30(%rbx,%rsi,1)
   1017e:	89 54 33 0c          	mov    %edx,0xc(%rbx,%rsi,1)
   10182:	41 8b 14 8e          	mov    (%r14,%rcx,4),%edx
   10186:	c7 44 33 18 00 00 00 00 	movl   $0x0,0x18(%rbx,%rsi,1)
   1018e:	89 54 33 10          	mov    %edx,0x10(%rbx,%rsi,1)
   10192:	49 8d 51 02          	lea    0x2(%r9),%rdx
   10196:	0f 11 4c 33 20       	movups %xmm1,0x20(%rbx,%rsi,1)
   1019b:	49 83 f9 06          	cmp    $0x6,%r9
   1019f:	0f 84 05 02 00 00    	je     103aa <main+0x38a>
   101a5:	4c 6b c2 38          	imul   $0x38,%rdx,%r8
   101a9:	48 8d 1d f0 e1 a2 11 	lea    0x11a2e1f0(%rip),%rbx        # 11a3e3a0 <startup_info>
   101b0:	41 ba ff 03 00 00    	mov    $0x3ff,%r10d
   101b6:	8d b7 00 01 00 00    	lea    0x100(%rdi),%esi
   101bc:	42 89 74 03 08       	mov    %esi,0x8(%rbx,%r8,1)
   101c1:	8d b7 7f 01 00 00    	lea    0x17f(%rdi),%esi
   101c7:	44 39 d6             	cmp    %r10d,%esi
   101ca:	4a 89 14 03          	mov    %rdx,(%rbx,%r8,1)
   101ce:	41 8b 14 96          	mov    (%r14,%rdx,4),%edx
   101d2:	41 0f 4f f2          	cmovg  %r10d,%esi
   101d6:	31 c0                	xor    %eax,%eax
   101d8:	42 c7 44 03 14 01 00 00 00 	movl   $0x1,0x14(%rbx,%r8,1)
   101e1:	42 89 54 03 10       	mov    %edx,0x10(%rbx,%r8,1)
   101e6:	42 89 74 03 0c       	mov    %esi,0xc(%rbx,%r8,1)
   101eb:	49 8d 71 03          	lea    0x3(%r9),%rsi
   101ef:	4a 89 6c 03 30       	mov    %rbp,0x30(%rbx,%r8,1)
   101f4:	42 89 44 03 18       	mov    %eax,0x18(%rbx,%r8,1)
   101f9:	42 0f 11 4c 03 20    	movups %xmm1,0x20(%rbx,%r8,1)
   101ff:	49 83 f9 05          	cmp    $0x5,%r9
   10203:	0f 84 a1 01 00 00    	je     103aa <main+0x38a>
   10209:	4c 6b c6 38          	imul   $0x38,%rsi,%r8
   1020d:	8d 97 80 01 00 00    	lea    0x180(%rdi),%edx
   10213:	42 89 54 03 08       	mov    %edx,0x8(%rbx,%r8,1)
   10218:	8d 97 ff 01 00 00    	lea    0x1ff(%rdi),%edx
   1021e:	44 39 d2             	cmp    %r10d,%edx
   10221:	4a 89 34 03          	mov    %rsi,(%rbx,%r8,1)
   10225:	41 0f 4f d2          	cmovg  %r10d,%edx
   10229:	31 c0                	xor    %eax,%eax
   1022b:	4a 89 6c 03 30       	mov    %rbp,0x30(%rbx,%r8,1)
   10230:	42 c7 44 03 14 01 00 00 00 	movl   $0x1,0x14(%rbx,%r8,1)
   10239:	42 89 54 03 0c       	mov    %edx,0xc(%rbx,%r8,1)
   1023e:	41 8b 14 b6          	mov    (%r14,%rsi,4),%edx
   10242:	49 8d 71 04          	lea    0x4(%r9),%rsi
   10246:	42 89 44 03 18       	mov    %eax,0x18(%rbx,%r8,1)
   1024b:	42 89 54 03 10       	mov    %edx,0x10(%rbx,%r8,1)
   10250:	42 0f 11 4c 03 20    	movups %xmm1,0x20(%rbx,%r8,1)
   10256:	49 83 f9 04          	cmp    $0x4,%r9
   1025a:	0f 84 4a 01 00 00    	je     103aa <main+0x38a>
   10260:	4c 6b c6 38          	imul   $0x38,%rsi,%r8
   10264:	8d 97 00 02 00 00    	lea    0x200(%rdi),%edx
   1026a:	42 89 54 03 08       	mov    %edx,0x8(%rbx,%r8,1)
   1026f:	8d 97 7f 02 00 00    	lea    0x27f(%rdi),%edx
   10275:	44 39 d2             	cmp    %r10d,%edx
   10278:	4a 89 34 03          	mov    %rsi,(%rbx,%r8,1)
   1027c:	41 0f 4f d2          	cmovg  %r10d,%edx
   10280:	45 31 db             	xor    %r11d,%r11d
   10283:	4a 89 6c 03 30       	mov    %rbp,0x30(%rbx,%r8,1)
   10288:	42 c7 44 03 14 01 00 00 00 	movl   $0x1,0x14(%rbx,%r8,1)
   10291:	42 89 54 03 0c       	mov    %edx,0xc(%rbx,%r8,1)
   10296:	41 8b 14 b6          	mov    (%r14,%rsi,4),%edx
   1029a:	49 8d 71 05          	lea    0x5(%r9),%rsi
   1029e:	46 89 5c 03 18       	mov    %r11d,0x18(%rbx,%r8,1)
   102a3:	42 89 54 03 10       	mov    %edx,0x10(%rbx,%r8,1)
   102a8:	42 0f 11 4c 03 20    	movups %xmm1,0x20(%rbx,%r8,1)
   102ae:	49 83 f9 03          	cmp    $0x3,%r9
   102b2:	0f 84 f2 00 00 00    	je     103aa <main+0x38a>
   102b8:	4c 6b c6 38          	imul   $0x38,%rsi,%r8
   102bc:	8d 97 80 02 00 00    	lea    0x280(%rdi),%edx
   102c2:	42 89 54 03 08       	mov    %edx,0x8(%rbx,%r8,1)
   102c7:	8d 97 ff 02 00 00    	lea    0x2ff(%rdi),%edx
   102cd:	44 39 d2             	cmp    %r10d,%edx
   102d0:	4a 89 34 03          	mov    %rsi,(%rbx,%r8,1)
   102d4:	41 0f 4f d2          	cmovg  %r10d,%edx
   102d8:	4a 89 6c 03 30       	mov    %rbp,0x30(%rbx,%r8,1)
   102dd:	42 c7 44 03 14 01 00 00 00 	movl   $0x1,0x14(%rbx,%r8,1)
   102e6:	42 89 54 03 0c       	mov    %edx,0xc(%rbx,%r8,1)
   102eb:	41 8b 14 b6          	mov    (%r14,%rsi,4),%edx
   102ef:	31 f6                	xor    %esi,%esi
   102f1:	42 89 74 03 18       	mov    %esi,0x18(%rbx,%r8,1)
   102f6:	49 8d 71 06          	lea    0x6(%r9),%rsi
   102fa:	42 89 54 03 10       	mov    %edx,0x10(%rbx,%r8,1)
   102ff:	42 0f 11 4c 03 20    	movups %xmm1,0x20(%rbx,%r8,1)
   10305:	49 83 f9 02          	cmp    $0x2,%r9
   10309:	0f 84 9b 00 00 00    	je     103aa <main+0x38a>
   1030f:	4c 6b c6 38          	imul   $0x38,%rsi,%r8
   10313:	8d 97 00 03 00 00    	lea    0x300(%rdi),%edx
   10319:	41 b9 ff 03 00 00    	mov    $0x3ff,%r9d
   1031f:	42 89 54 03 08       	mov    %edx,0x8(%rbx,%r8,1)
   10324:	8d 97 7f 03 00 00    	lea    0x37f(%rdi),%edx
   1032a:	44 39 ca             	cmp    %r9d,%edx
   1032d:	4a 89 34 03          	mov    %rsi,(%rbx,%r8,1)
   10331:	41 0f 4f d1          	cmovg  %r9d,%edx
   10335:	4a 89 6c 03 30       	mov    %rbp,0x30(%rbx,%r8,1)
   1033a:	42 c7 44 03 14 01 00 00 00 	movl   $0x1,0x14(%rbx,%r8,1)
   10343:	42 89 54 03 0c       	mov    %edx,0xc(%rbx,%r8,1)
   10348:	41 8b 14 b6          	mov    (%r14,%rsi,4),%edx
   1034c:	42 0f 11 4c 03 20    	movups %xmm1,0x20(%rbx,%r8,1)
   10352:	42 89 54 03 10       	mov    %edx,0x10(%rbx,%r8,1)
   10357:	31 d2                	xor    %edx,%edx
   10359:	48 83 e9 01          	sub    $0x1,%rcx
   1035d:	42 89 54 03 18       	mov    %edx,0x18(%rbx,%r8,1)
   10362:	75 46                	jne    103aa <main+0x38a>
   10364:	8b 05 12 a0 9a 11    	mov    0x119aa012(%rip),%eax        # 119ba37c <cpu_id_per_numa_node+0x1c>
   1036a:	81 c7 80 03 00 00    	add    $0x380,%edi
   10370:	48 c7 05 ad e1 a2 11 07 00 00 00 	movq   $0x7,0x11a2e1ad(%rip)        # 11a3e528 <startup_info+0x188>
   1037b:	89 3d af e1 a2 11    	mov    %edi,0x11a2e1af(%rip)        # 11a3e530 <startup_info+0x190>
   10381:	c7 05 a9 e1 a2 11 ff 03 00 00 	movl   $0x3ff,0x11a2e1a9(%rip)        # 11a3e534 <startup_info+0x194>
   1038b:	89 05 a7 e1 a2 11    	mov    %eax,0x11a2e1a7(%rip)        # 11a3e538 <startup_info+0x198>
   10391:	48 89 2d c0 e1 a2 11 	mov    %rbp,0x11a2e1c0(%rip)        # 11a3e558 <startup_info+0x1b8>
   10398:	48 c7 05 99 e1 a2 11 01 00 00 00 	movq   $0x1,0x11a2e199(%rip)        # 11a3e53c <startup_info+0x19c>
   103a3:	0f 11 0d 9e e1 a2 11 	movups %xmm1,0x11a2e19e(%rip)        # 11a3e548 <startup_info+0x1a8>
   103aa:	e8 91 63 00 00       	call   16740 <speculation_init>
   103af:	4c 8d 35 aa e1 a2 11 	lea    0x11a2e1aa(%rip),%r14        # 11a3e560 <object_seeds>
   103b6:	66 2e 0f 1f 84 00 00 00 00 00 	cs nopw 0x0(%rax,%rax,1)
   103c0:	31 f6                	xor    %esi,%esi
   103c2:	4c 89 e9             	mov    %r13,%rcx
   103c5:	48 8d 7c 24 40       	lea    0x40(%rsp),%rdi
   103ca:	48 8d 15 8f 58 00 00 	lea    0x588f(%rip),%rdx        # 15c60 <thread>
   103d1:	e8 4a 1d ff ff       	call   2120 <pthread_create@plt>
   103d6:	85 c0                	test   %eax,%eax
   103d8:	0f 85 22 fc ff ff    	jne    10000 <main.cold>
   103de:	49 83 c5 38          	add    $0x38,%r13
   103e2:	4d 39 f5             	cmp    %r14,%r13
   103e5:	75 d9                	jne    103c0 <main+0x3a0>
   103e7:	8b 05 73 9f a2 11    	mov    0x11a29f73(%rip),%eax        # 11a3a360 <NUMA_NODES>
   103ed:	31 db                	xor    %ebx,%ebx
   103ef:	85 c0                	test   %eax,%eax
   103f1:	7e 3b                	jle    1042e <main+0x40e>
   103f3:	66 90                	xchg   %ax,%ax
   103f5:	66 66 2e 0f 1f 84 00 00 00 00 00 	data16 cs nopw 0x0(%rax,%rax,1)
   10400:	41 8b 0c 9f          	mov    (%r15,%rbx,4),%ecx
   10404:	41 8b 14 9c          	mov    (%r12,%rbx,4),%edx
   10408:	48 89 de             	mov    %rbx,%rsi
   1040b:	31 c0                	xor    %eax,%eax
   1040d:	44 8b 44 9d 00       	mov    0x0(%rbp,%rbx,4),%r8d
   10412:	48 8d 3d cf 15 04 00 	lea    0x415cf(%rip),%rdi        # 519e8 <_IO_stdin_used+0x9e8>
   10419:	48 83 c3 01          	add    $0x1,%rbx
   1041d:	e8 1e 1c ff ff       	call   2040 <printf@plt>
   10422:	48 63 05 37 9f a2 11 	movslq 0x11a29f37(%rip),%rax        # 11a3a360 <NUMA_NODES>
   10429:	48 39 d8             	cmp    %rbx,%rax
   1042c:	7f d2                	jg     10400 <main+0x3e0>
   1042e:	bf 0a 00 00 00       	mov    $0xa,%edi
   10433:	e8 38 1d ff ff       	call   2170 <sleep@plt>
   10438:	48 63 15 41 df a2 11 	movslq 0x11a2df41(%rip),%rdx        # 11a3e380 <processed_events>
   1043f:	bf 3c 00 00 00       	mov    $0x3c,%edi
   10444:	48 63 05 39 df a2 11 	movslq 0x11a2df39(%rip),%rax        # 11a3e384 <processed_events+0x4>
   1044b:	48 01 c2             	add    %rax,%rdx
   1044e:	48 63 05 33 df a2 11 	movslq 0x11a2df33(%rip),%rax        # 11a3e388 <processed_events+0x8>
   10455:	48 01 d0             	add    %rdx,%rax
   10458:	48 63 15 2d df a2 11 	movslq 0x11a2df2d(%rip),%rdx        # 11a3e38c <processed_events+0xc>
   1045f:	48 01 c2             	add    %rax,%rdx
   10462:	48 63 05 27 df a2 11 	movslq 0x11a2df27(%rip),%rax        # 11a3e390 <processed_events+0x10>
   10469:	48 01 d0             	add    %rdx,%rax
   1046c:	48 63 15 21 df a2 11 	movslq 0x11a2df21(%rip),%rdx        # 11a3e394 <processed_events+0x14>
   10473:	48 01 c2             	add    %rax,%rdx
   10476:	48 63 05 1b df a2 11 	movslq 0x11a2df1b(%rip),%rax        # 11a3e398 <processed_events+0x18>
   1047d:	48 63 2d 18 df a2 11 	movslq 0x11a2df18(%rip),%rbp        # 11a3e39c <processed_events+0x1c>
   10484:	4c 8b 3d b5 96 9a 11 	mov    0x119a96b5(%rip),%r15        # 119b9b40 <filtered_events>
   1048b:	4c 8b 2d ae d0 04 00 	mov    0x4d0ae(%rip),%r13        # 5d540 <rollbacks>
   10492:	48 01 d0             	add    %rdx,%rax
   10495:	4c 8b 35 64 d0 04 00 	mov    0x4d064(%rip),%r14        # 5d500 <epochs>
   1049c:	48 01 c5             	add    %rax,%rbp
   1049f:	e8 cc 1c ff ff       	call   2170 <sleep@plt>
   104a4:	48 63 15 d5 de a2 11 	movslq 0x11a2ded5(%rip),%rdx        # 11a3e380 <processed_events>
   104ab:	48 63 05 d2 de a2 11 	movslq 0x11a2ded2(%rip),%rax        # 11a3e384 <processed_events+0x4>
   104b2:	48 8d 3d 72 20 04 00 	lea    0x42072(%rip),%rdi        # 5252b <_IO_stdin_used+0x152b>
   104b9:	48 01 c2             	add    %rax,%rdx
   104bc:	48 63 05 c5 de a2 11 	movslq 0x11a2dec5(%rip),%rax        # 11a3e388 <processed_events+0x8>
   104c3:	48 01 d0             	add    %rdx,%rax
   104c6:	48 63 15 bf de a2 11 	movslq 0x11a2debf(%rip),%rdx        # 11a3e38c <processed_events+0xc>
   104cd:	48 01 c2             	add    %rax,%rdx
   104d0:	48 63 05 b9 de a2 11 	movslq 0x11a2deb9(%rip),%rax        # 11a3e390 <processed_events+0x10>
   104d7:	48 01 d0             	add    %rdx,%rax
   104da:	48 63 15 b3 de a2 11 	movslq 0x11a2deb3(%rip),%rdx        # 11a3e394 <processed_events+0x14>
   104e1:	48 01 c2             	add    %rax,%rdx
   104e4:	48 63 05 ad de a2 11 	movslq 0x11a2dead(%rip),%rax        # 11a3e398 <processed_events+0x18>
   104eb:	48 63 1d aa de a2 11 	movslq 0x11a2deaa(%rip),%rbx        # 11a3e39c <processed_events+0x1c>
   104f2:	48 01 d0             	add    %rdx,%rax
   104f5:	48 8b 15 44 96 9a 11 	mov    0x119a9644(%rip),%rdx        # 119b9b40 <filtered_events>
   104fc:	4c 8b 25 3d d0 04 00 	mov    0x4d03d(%rip),%r12        # 5d540 <rollbacks>
   10503:	48 8b 35 f6 cf 04 00 	mov    0x4cff6(%rip),%rsi        # 5d500 <epochs>
   1050a:	48 01 c3             	add    %rax,%rbx
   1050d:	31 c0                	xor    %eax,%eax
   1050f:	4c 29 fa             	sub    %r15,%rdx
   10512:	48 29 eb             	sub    %rbp,%rbx
   10515:	4c 29 f6             	sub    %r14,%rsi
   10518:	48 89 d5             	mov    %rdx,%rbp
   1051b:	e8 20 1b ff ff       	call   2040 <printf@plt>
   10520:	4c 89 e6             	mov    %r12,%rsi
   10523:	48 8d 3d 14 20 04 00 	lea    0x42014(%rip),%rdi        # 5253e <_IO_stdin_used+0x153e>
   1052a:	31 c0                	xor    %eax,%eax
   1052c:	4c 29 ee             	sub    %r13,%rsi
   1052f:	e8 0c 1b ff ff       	call   2040 <printf@plt>
   10534:	48 89 de             	mov    %rbx,%rsi
   10537:	48 8d 3d 10 20 04 00 	lea    0x42010(%rip),%rdi        # 5254e <_IO_stdin_used+0x154e>
   1053e:	31 c0                	xor    %eax,%eax
   10540:	e8 fb 1a ff ff       	call   2040 <printf@plt>
   10545:	48 89 de             	mov    %rbx,%rsi
   10548:	48 8d 3d 12 20 04 00 	lea    0x42012(%rip),%rdi        # 52561 <_IO_stdin_used+0x1561>
   1054f:	31 c0                	xor    %eax,%eax
   10551:	48 29 ee             	sub    %rbp,%rsi
   10554:	e8 e7 1a ff ff       	call   2040 <printf@plt>
   10559:	48 8d 3d 18 20 04 00 	lea    0x42018(%rip),%rdi        # 52578 <_IO_stdin_used+0x1578>
   10560:	48 89 ee             	mov    %rbp,%rsi
   10563:	31 c0                	xor    %eax,%eax
   10565:	e8 d6 1a ff ff       	call   2040 <printf@plt>
   1056a:	31 ff                	xor    %edi,%edi
   1056c:	e8 3f 1b ff ff       	call   20b0 <exit@plt>
   10571:	44 89 5c 24 10       	mov    %r11d,0x10(%rsp)
   10576:	4c 8d 05 e3 6c 04 00 	lea    0x46ce3(%rip),%r8        # 57260 <cpus_per_numa_node>
   1057d:	4c 63 d2             	movslq %edx,%r10
   10580:	4b 63 04 90          	movslq (%r8,%r10,4),%rax
   10584:	85 c0                	test   %eax,%eax
   10586:	0f 8e f4 00 00 00    	jle    10680 <main+0x660>
   1058c:	4d 89 d3             	mov    %r10,%r11
   1058f:	31 c9                	xor    %ecx,%ecx
   10591:	49 c1 e3 0c          	shl    $0xc,%r11
   10595:	4d 01 f3             	add    %r14,%r11
   10598:	eb 13                	jmp    105ad <main+0x58d>
   1059a:	66 0f 1f 44 00 00    	nopw   0x0(%rax,%rax,1)
   105a0:	48 83 c1 01          	add    $0x1,%rcx
   105a4:	48 39 c1             	cmp    %rax,%rcx
   105a7:	0f 84 d3 00 00 00    	je     10680 <main+0x660>
   105ad:	41 8b 34 8b          	mov    (%r11,%rcx,4),%esi
   105b1:	83 fe ff             	cmp    $0xffffffff,%esi
   105b4:	74 ea                	je     105a0 <main+0x580>
   105b6:	49 c1 e2 0a          	shl    $0xa,%r10
   105ba:	44 8b 5c 24 10       	mov    0x10(%rsp),%r11d
   105bf:	89 73 10             	mov    %esi,0x10(%rbx)
   105c2:	49 01 ca             	add    %rcx,%r10
   105c5:	89 53 14             	mov    %edx,0x14(%rbx)
   105c8:	43 c7 04 96 ff ff ff ff 	movl   $0xffffffff,(%r14,%r10,4)
   105d0:	48 89 6b 30          	mov    %rbp,0x30(%rbx)
   105d4:	44 89 6b 18          	mov    %r13d,0x18(%rbx)
   105d8:	0f 11 4b 20          	movups %xmm1,0x20(%rbx)
   105dc:	41 39 fb             	cmp    %edi,%r11d
   105df:	7d 27                	jge    10608 <main+0x5e8>
   105e1:	49 83 c1 01          	add    $0x1,%r9
   105e5:	49 83 f9 08          	cmp    $0x8,%r9
   105e9:	0f 84 9d 00 00 00    	je     1068c <main+0x66c>
   105ef:	8d 42 01             	lea    0x1(%rdx),%eax
   105f2:	8b 7c 24 38          	mov    0x38(%rsp),%edi
   105f6:	48 83 c3 38          	add    $0x38,%rbx
   105fa:	99                   	cltd
   105fb:	f7 3c 24             	idivl  (%rsp)
   105fe:	e9 ea fa ff ff       	jmp    100ed <main+0xcd>
   10603:	0f 1f 44 00 00       	nopl   0x0(%rax,%rax,1)
   10608:	66 0f ef c0          	pxor   %xmm0,%xmm0
   1060c:	49 63 c5             	movslq %r13d,%rax
   1060f:	f2 41 0f 2a c3       	cvtsi2sd %r11d,%xmm0
   10614:	f2 0f 5e c2          	divsd  %xmm2,%xmm0
   10618:	41 83 2c 84 80       	subl   $0xffffff80,(%r12,%rax,4)
   1061d:	44 89 5c 85 00       	mov    %r11d,0x0(%rbp,%rax,4)
   10622:	f2 0f 2c c0          	cvttsd2si %xmm0,%eax
   10626:	44 39 e8             	cmp    %r13d,%eax
   10629:	7e b6                	jle    105e1 <main+0x5c1>
   1062b:	4c 89 ce             	mov    %r9,%rsi
   1062e:	48 8d 3d 6b 13 04 00 	lea    0x4136b(%rip),%rdi        # 519a0 <_IO_stdin_used+0x9a0>
   10635:	31 c0                	xor    %eax,%eax
   10637:	89 54 24 3c          	mov    %edx,0x3c(%rsp)
   1063b:	4c 89 4c 24 10       	mov    %r9,0x10(%rsp)
   10640:	41 83 c5 01          	add    $0x1,%r13d
   10644:	0f 29 4c 24 20       	movaps %xmm1,0x20(%rsp)
   10649:	f2 0f 11 54 24 30    	movsd  %xmm2,0x30(%rsp)
   1064f:	e8 ec 19 ff ff       	call   2040 <printf@plt>
   10654:	8b 43 0c             	mov    0xc(%rbx),%eax
   10657:	49 63 cd             	movslq %r13d,%rcx
   1065a:	4c 8b 4c 24 10       	mov    0x10(%rsp),%r9
   1065f:	f2 0f 10 54 24 30    	movsd  0x30(%rsp),%xmm2
   10665:	66 0f 6f 4c 24 20    	movdqa 0x20(%rsp),%xmm1
   1066b:	83 c0 01             	add    $0x1,%eax
   1066e:	8b 54 24 3c          	mov    0x3c(%rsp),%edx
   10672:	41 89 04 8f          	mov    %eax,(%r15,%rcx,4)
   10676:	e9 66 ff ff ff       	jmp    105e1 <main+0x5c1>
   1067b:	0f 1f 44 00 00       	nopl   0x0(%rax,%rax,1)
   10680:	8d 42 01             	lea    0x1(%rdx),%eax
   10683:	99                   	cltd
   10684:	f7 3c 24             	idivl  (%rsp)
   10687:	e9 f1 fe ff ff       	jmp    1057d <main+0x55d>
   1068c:	4c 8b 6c 24 18       	mov    0x18(%rsp),%r13
   10691:	e9 14 fd ff ff       	jmp    103aa <main+0x38a>
   10696:	66 2e 0f 1f 84 00 00 00 00 00 	cs nopw 0x0(%rax,%rax,1)

00000000000106a0 <_start>:
   106a0:	f3 0f 1e fa          	endbr64
   106a4:	31 ed                	xor    %ebp,%ebp
   106a6:	49 89 d1             	mov    %rdx,%r9
   106a9:	5e                   	pop    %rsi
   106aa:	48 89 e2             	mov    %rsp,%rdx
   106ad:	48 83 e4 f0          	and    $0xfffffffffffffff0,%rsp
   106b1:	50                   	push   %rax
   106b2:	54                   	push   %rsp
   106b3:	45 31 c0             	xor    %r8d,%r8d
   106b6:	31 c9                	xor    %ecx,%ecx
   106b8:	48 8d 3d e1 1b 01 00 	lea    0x11be1(%rip),%rdi        # 222a0 <__wrap_main>
   106bf:	ff 15 1b 49 04 00    	call   *0x4491b(%rip)        # 54fe0 <__libc_start_main@GLIBC_2.34>
   106c5:	f4                   	hlt
   106c6:	66 2e 0f 1f 84 00 00 00 00 00 	cs nopw 0x0(%rax,%rax,1)

00000000000106d0 <deregister_tm_clones>:
   106d0:	48 8d 3d a1 6d 04 00 	lea    0x46da1(%rip),%rdi        # 57478 <__TMC_END__>
   106d7:	48 8d 05 9a 6d 04 00 	lea    0x46d9a(%rip),%rax        # 57478 <__TMC_END__>
   106de:	48 39 f8             	cmp    %rdi,%rax
   106e1:	74 15                	je     106f8 <deregister_tm_clones+0x28>
   106e3:	48 8b 05 de 48 04 00 	mov    0x448de(%rip),%rax        # 54fc8 <_ITM_deregisterTMCloneTable>
   106ea:	48 85 c0             	test   %rax,%rax
   106ed:	74 09                	je     106f8 <deregister_tm_clones+0x28>
   106ef:	ff e0                	jmp    *%rax
   106f1:	0f 1f 80 00 00 00 00 	nopl   0x0(%rax)
   106f8:	c3                   	ret
   106f9:	0f 1f 80 00 00 00 00 	nopl   0x0(%rax)

0000000000010700 <register_tm_clones>:
   10700:	48 8d 3d 71 6d 04 00 	lea    0x46d71(%rip),%rdi        # 57478 <__TMC_END__>
   10707:	48 8d 35 6a 6d 04 00 	lea    0x46d6a(%rip),%rsi        # 57478 <__TMC_END__>
   1070e:	48 29 fe             	sub    %rdi,%rsi
   10711:	48 89 f0             	mov    %rsi,%rax
   10714:	48 c1 ee 3f          	shr    $0x3f,%rsi
   10718:	48 c1 f8 03          	sar    $0x3,%rax
   1071c:	48 01 c6             	add    %rax,%rsi
   1071f:	48 d1 fe             	sar    $1,%rsi
   10722:	74 14                	je     10738 <register_tm_clones+0x38>
   10724:	48 8b 05 a5 48 04 00 	mov    0x448a5(%rip),%rax        # 54fd0 <_ITM_registerTMCloneTable>
   1072b:	48 85 c0             	test   %rax,%rax
   1072e:	74 08                	je     10738 <register_tm_clones+0x38>
   10730:	ff e0                	jmp    *%rax
   10732:	66 0f 1f 44 00 00    	nopw   0x0(%rax,%rax,1)
   10738:	c3                   	ret
   10739:	0f 1f 80 00 00 00 00 	nopl   0x0(%rax)

0000000000010740 <__do_global_dtors_aux>:
   10740:	f3 0f 1e fa          	endbr64
   10744:	80 3d 3d 6d 04 00 00 	cmpb   $0x0,0x46d3d(%rip)        # 57488 <completed.0>
   1074b:	75 33                	jne    10780 <__do_global_dtors_aux+0x40>
   1074d:	55                   	push   %rbp
   1074e:	48 83 3d 82 48 04 00 00 	cmpq   $0x0,0x44882(%rip)        # 54fd8 <__cxa_finalize@GLIBC_2.2.5>
   10756:	48 89 e5             	mov    %rsp,%rbp
   10759:	74 0d                	je     10768 <__do_global_dtors_aux+0x28>
   1075b:	48 8b 3d e6 49 04 00 	mov    0x449e6(%rip),%rdi        # 55148 <__dso_handle>
   10762:	ff 15 70 48 04 00    	call   *0x44870(%rip)        # 54fd8 <__cxa_finalize@GLIBC_2.2.5>
   10768:	e8 63 ff ff ff       	call   106d0 <deregister_tm_clones>
   1076d:	c6 05 14 6d 04 00 01 	movb   $0x1,0x46d14(%rip)        # 57488 <completed.0>
   10774:	5d                   	pop    %rbp
   10775:	c3                   	ret
   10776:	66 2e 0f 1f 84 00 00 00 00 00 	cs nopw 0x0(%rax,%rax,1)
   10780:	c3                   	ret
   10781:	0f 1f 40 00          	nopl   0x0(%rax)
   10785:	66 66 2e 0f 1f 84 00 00 00 00 00 	data16 cs nopw 0x0(%rax,%rax,1)

0000000000010790 <frame_dummy>:
   10790:	f3 0f 1e fa          	endbr64
   10794:	e9 67 ff ff ff       	jmp    10700 <register_tm_clones>
   10799:	66 2e 0f 1f 84 00 00 00 00 00 	cs nopw 0x0(%rax,%rax,1)
   107a3:	66 2e 0f 1f 84 00 00 00 00 00 	cs nopw 0x0(%rax,%rax,1)
   107ad:	66 2e 0f 1f 84 00 00 00 00 00 	cs nopw 0x0(%rax,%rax,1)
   107b7:	66 0f 1f 84 00 00 00 00 00 	nopw   0x0(%rax,%rax,1)

00000000000107c0 <alloc_lp_state_memory>:
   107c0:	55                   	push   %rbp
   107c1:	48 89 e5             	mov    %rsp,%rbp
   107c4:	48 83 ec 10          	sub    $0x10,%rsp
   107c8:	89 7d fc             	mov    %edi,-0x4(%rbp)
   107cb:	eb 0f                	jmp    107dc <alloc_lp_state_memory+0x1c>
   107cd:	fa                   	cli
   107ce:	90                   	nop
   107cf:	90                   	nop
   107d0:	90                   	nop
   107d1:	90                   	nop
   107d2:	fa                   	cli
   107d3:	90                   	nop
   107d4:	90                   	nop
   107d5:	90                   	nop
   107d6:	90                   	nop
   107d7:	fa                   	cli
   107d8:	90                   	nop
   107d9:	90                   	nop
   107da:	90                   	nop
   107db:	90                   	nop
   107dc:	bf 88 00 00 00       	mov    $0x88,%edi
   107e1:	e8 7a 4c 00 00       	call   15460 <__wrap_malloc>
   107e6:	48 89 c1             	mov    %rax,%rcx
   107e9:	8b 45 fc             	mov    -0x4(%rbp),%eax
   107ec:	48 8d 14 c5 00 00 00 00 	lea    0x0(,%rax,8),%rdx
   107f4:	48 8d 05 c5 6c 04 00 	lea    0x46cc5(%rip),%rax        # 574c0 <states>
   107fb:	48 89 0c 02          	mov    %rcx,(%rdx,%rax,1)
   107ff:	8b 45 fc             	mov    -0x4(%rbp),%eax
   10802:	48 8d 14 c5 00 00 00 00 	lea    0x0(,%rax,8),%rdx
   1080a:	48 8d 05 af 6c 04 00 	lea    0x46caf(%rip),%rax        # 574c0 <states>
   10811:	48 8b 04 02          	mov    (%rdx,%rax,1),%rax
   10815:	48 85 c0             	test   %rax,%rax
   10818:	75 2a                	jne    10844 <alloc_lp_state_memory+0x84>
   1081a:	eb 0f                	jmp    1082b <alloc_lp_state_memory+0x6b>
   1081c:	fa                   	cli
   1081d:	90                   	nop
   1081e:	90                   	nop
   1081f:	90                   	nop
   10820:	90                   	nop
   10821:	fa                   	cli
   10822:	90                   	nop
   10823:	90                   	nop
   10824:	90                   	nop
   10825:	90                   	nop
   10826:	fa                   	cli
   10827:	90                   	nop
   10828:	90                   	nop
   10829:	90                   	nop
   1082a:	90                   	nop
   1082b:	48 8d 05 d6 07 04 00 	lea    0x407d6(%rip),%rax        # 51008 <_IO_stdin_used+0x8>
   10832:	48 89 c7             	mov    %rax,%rdi
   10835:	e8 46 18 ff ff       	call   2080 <puts@plt>
   1083a:	bf 01 00 00 00       	mov    $0x1,%edi
   1083f:	e8 6c 18 ff ff       	call   20b0 <exit@plt>
   10844:	8b 45 fc             	mov    -0x4(%rbp),%eax
   10847:	48 8d 14 c5 00 00 00 00 	lea    0x0(,%rax,8),%rdx
   1084f:	48 8d 05 6a 6c 04 00 	lea    0x46c6a(%rip),%rax        # 574c0 <states>
   10856:	48 8b 04 02          	mov    (%rdx,%rax,1),%rax
   1085a:	ba 88 00 00 00       	mov    $0x88,%edx
   1085f:	be 00 00 00 00       	mov    $0x0,%esi
   10864:	48 89 c7             	mov    %rax,%rdi
   10867:	e8 f4 17 ff ff       	call   2060 <memset@plt>
   1086c:	90                   	nop
   1086d:	c9                   	leave
   1086e:	c3                   	ret

000000000001086f <ProcessEvent>:
   1086f:	55                   	push   %rbp
   10870:	48 89 e5             	mov    %rsp,%rbp
   10873:	48 81 ec b0 00 00 00 	sub    $0xb0,%rsp
   1087a:	89 bd 7c ff ff ff    	mov    %edi,-0x84(%rbp)
   10880:	f2 0f 11 85 70 ff ff ff 	movsd  %xmm0,-0x90(%rbp)
   10888:	89 b5 78 ff ff ff    	mov    %esi,-0x88(%rbp)
   1088e:	48 89 95 68 ff ff ff 	mov    %rdx,-0x98(%rbp)
   10895:	89 8d 64 ff ff ff    	mov    %ecx,-0x9c(%rbp)
   1089b:	4c 89 85 58 ff ff ff 	mov    %r8,-0xa8(%rbp)
   108a2:	64 48 8b 04 25 28 00 00 00 	mov    %fs:0x28,%rax
   108ab:	48 89 45 f8          	mov    %rax,-0x8(%rbp)
   108af:	31 c0                	xor    %eax,%eax
   108b1:	c7 45 90 2c 01 00 00 	movl   $0x12c,-0x70(%rbp)
   108b8:	48 8b 85 68 ff ff ff 	mov    -0x98(%rbp),%rax
   108bf:	48 89 45 a8          	mov    %rax,-0x58(%rbp)
   108c3:	c7 45 d0 ff ff ff ff 	movl   $0xffffffff,-0x30(%rbp)
   108ca:	c7 45 e0 ff ff ff ff 	movl   $0xffffffff,-0x20(%rbp)
   108d1:	f2 0f 10 05 37 09 04 00 	movsd  0x40937(%rip),%xmm0        # 51210 <_IO_stdin_used+0x210>
   108d9:	f2 0f 11 45 e8       	movsd  %xmm0,-0x18(%rbp)
   108de:	66 0f ef c0          	pxor   %xmm0,%xmm0
   108e2:	f2 0f 11 45 a0       	movsd  %xmm0,-0x60(%rbp)
   108e7:	c7 45 8c 01 00 00 00 	movl   $0x1,-0x74(%rbp)
   108ee:	8b 85 7c ff ff ff    	mov    -0x84(%rbp),%eax
   108f4:	48 8d 14 c5 00 00 00 00 	lea    0x0(,%rax,8),%rdx
   108fc:	48 8d 05 bd 6b 04 00 	lea    0x46bbd(%rip),%rax        # 574c0 <states>
   10903:	48 8b 04 02          	mov    (%rdx,%rax,1),%rax
   10907:	48 85 c0             	test   %rax,%rax
   1090a:	0f 84 dc 00 00 00    	je     109ec <ProcessEvent+0x17d>
   10910:	eb 0f                	jmp    10921 <ProcessEvent+0xb2>
   10912:	fa                   	cli
   10913:	90                   	nop
   10914:	90                   	nop
   10915:	90                   	nop
   10916:	90                   	nop
   10917:	fa                   	cli
   10918:	90                   	nop
   10919:	90                   	nop
   1091a:	90                   	nop
   1091b:	90                   	nop
   1091c:	fa                   	cli
   1091d:	90                   	nop
   1091e:	90                   	nop
   1091f:	90                   	nop
   10920:	90                   	nop
   10921:	8b 85 7c ff ff ff    	mov    -0x84(%rbp),%eax
   10927:	48 8d 14 c5 00 00 00 00 	lea    0x0(,%rax,8),%rdx
   1092f:	48 8d 05 8a 6b 04 00 	lea    0x46b8a(%rip),%rax        # 574c0 <states>
   10936:	48 8b 04 02          	mov    (%rdx,%rax,1),%rax
   1093a:	f2 0f 10 85 70 ff ff ff 	movsd  -0x90(%rbp),%xmm0
   10942:	f2 0f 11 40 38       	movsd  %xmm0,0x38(%rax)
   10947:	eb 0f                	jmp    10958 <ProcessEvent+0xe9>
   10949:	fa                   	cli
   1094a:	90                   	nop
   1094b:	90                   	nop
   1094c:	90                   	nop
   1094d:	90                   	nop
   1094e:	fa                   	cli
   1094f:	90                   	nop
   10950:	90                   	nop
   10951:	90                   	nop
   10952:	90                   	nop
   10953:	fa                   	cli
   10954:	90                   	nop
   10955:	90                   	nop
   10956:	90                   	nop
   10957:	90                   	nop
   10958:	8b 85 7c ff ff ff    	mov    -0x84(%rbp),%eax
   1095e:	48 8d 14 c5 00 00 00 00 	lea    0x0(,%rax,8),%rdx
   10966:	48 8d 05 53 6b 04 00 	lea    0x46b53(%rip),%rax        # 574c0 <states>
   1096d:	48 8b 04 02          	mov    (%rdx,%rax,1),%rax
   10971:	8b 40 30             	mov    0x30(%rax),%eax
   10974:	83 c0 01             	add    $0x1,%eax
   10977:	89 45 9c             	mov    %eax,-0x64(%rbp)
   1097a:	8b 85 7c ff ff ff    	mov    -0x84(%rbp),%eax
   10980:	48 8d 14 c5 00 00 00 00 	lea    0x0(,%rax,8),%rdx
   10988:	48 8d 05 31 6b 04 00 	lea    0x46b31(%rip),%rax        # 574c0 <states>
   1098f:	48 8b 04 02          	mov    (%rdx,%rax,1),%rax
   10993:	8b 55 9c             	mov    -0x64(%rbp),%edx
   10996:	89 50 30             	mov    %edx,0x30(%rax)
   10999:	eb 0f                	jmp    109aa <ProcessEvent+0x13b>
   1099b:	fa                   	cli
   1099c:	90                   	nop
   1099d:	90                   	nop
   1099e:	90                   	nop
   1099f:	90                   	nop
   109a0:	fa                   	cli
   109a1:	90                   	nop
   109a2:	90                   	nop
   109a3:	90                   	nop
   109a4:	90                   	nop
   109a5:	fa                   	cli
   109a6:	90                   	nop
   109a7:	90                   	nop
   109a8:	90                   	nop
   109a9:	90                   	nop
   109aa:	8b 85 7c ff ff ff    	mov    -0x84(%rbp),%eax
   109b0:	48 8d 14 c5 00 00 00 00 	lea    0x0(,%rax,8),%rdx
   109b8:	48 8d 05 01 6b 04 00 	lea    0x46b01(%rip),%rax        # 574c0 <states>
   109bf:	48 8b 04 02          	mov    (%rdx,%rax,1),%rax
   109c3:	48 83 c0 08          	add    $0x8,%rax
   109c7:	48 89 45 b8          	mov    %rax,-0x48(%rbp)
   109cb:	8b 85 7c ff ff ff    	mov    -0x84(%rbp),%eax
   109d1:	48 8d 14 c5 00 00 00 00 	lea    0x0(,%rax,8),%rdx
   109d9:	48 8d 05 e0 6a 04 00 	lea    0x46ae0(%rip),%rax        # 574c0 <states>
   109e0:	48 8b 04 02          	mov    (%rdx,%rax,1),%rax
   109e4:	48 83 c0 0c          	add    $0xc,%rax
   109e8:	48 89 45 b0          	mov    %rax,-0x50(%rbp)
   109ec:	83 bd 78 ff ff ff 20 	cmpl   $0x20,-0x88(%rbp)
   109f3:	0f 84 7b 05 00 00    	je     10f74 <ProcessEvent+0x705>
   109f9:	83 bd 78 ff ff ff 20 	cmpl   $0x20,-0x88(%rbp)
   10a00:	0f 8f 8b 0e 00 00    	jg     11891 <ProcessEvent+0x1022>
   10a06:	83 bd 78 ff ff ff 1f 	cmpl   $0x1f,-0x88(%rbp)
   10a0d:	0f 84 c1 0b 00 00    	je     115d4 <ProcessEvent+0xd65>
   10a13:	83 bd 78 ff ff ff 1f 	cmpl   $0x1f,-0x88(%rbp)
   10a1a:	0f 8f 71 0e 00 00    	jg     11891 <ProcessEvent+0x1022>
   10a20:	83 bd 78 ff ff ff 1e 	cmpl   $0x1e,-0x88(%rbp)
   10a27:	0f 84 b1 0a 00 00    	je     114de <ProcessEvent+0xc6f>
   10a2d:	83 bd 78 ff ff ff 1e 	cmpl   $0x1e,-0x88(%rbp)
   10a34:	0f 8f 57 0e 00 00    	jg     11891 <ProcessEvent+0x1022>
   10a3a:	83 bd 78 ff ff ff 15 	cmpl   $0x15,-0x88(%rbp)
   10a41:	0f 84 a1 09 00 00    	je     113e8 <ProcessEvent+0xb79>
   10a47:	83 bd 78 ff ff ff 15 	cmpl   $0x15,-0x88(%rbp)
   10a4e:	0f 8f 3d 0e 00 00    	jg     11891 <ProcessEvent+0x1022>
   10a54:	83 bd 78 ff ff ff 00 	cmpl   $0x0,-0x88(%rbp)
   10a5b:	74 12                	je     10a6f <ProcessEvent+0x200>
   10a5d:	83 bd 78 ff ff ff 14 	cmpl   $0x14,-0x88(%rbp)
   10a64:	0f 84 64 05 00 00    	je     10fce <ProcessEvent+0x75f>
   10a6a:	e9 22 0e 00 00       	jmp    11891 <ProcessEvent+0x1022>
   10a6f:	eb 0f                	jmp    10a80 <ProcessEvent+0x211>
   10a71:	fa                   	cli
   10a72:	90                   	nop
   10a73:	90                   	nop
   10a74:	90                   	nop
   10a75:	90                   	nop
   10a76:	fa                   	cli
   10a77:	90                   	nop
   10a78:	90                   	nop
   10a79:	90                   	nop
   10a7a:	90                   	nop
   10a7b:	fa                   	cli
   10a7c:	90                   	nop
   10a7d:	90                   	nop
   10a7e:	90                   	nop
   10a7f:	90                   	nop
   10a80:	8b 85 7c ff ff ff    	mov    -0x84(%rbp),%eax
   10a86:	89 c7                	mov    %eax,%edi
   10a88:	e8 33 fd ff ff       	call   107c0 <alloc_lp_state_memory>
   10a8d:	eb 0f                	jmp    10a9e <ProcessEvent+0x22f>
   10a8f:	fa                   	cli
   10a90:	90                   	nop
   10a91:	90                   	nop
   10a92:	90                   	nop
   10a93:	90                   	nop
   10a94:	fa                   	cli
   10a95:	90                   	nop
   10a96:	90                   	nop
   10a97:	90                   	nop
   10a98:	90                   	nop
   10a99:	fa                   	cli
   10a9a:	90                   	nop
   10a9b:	90                   	nop
   10a9c:	90                   	nop
   10a9d:	90                   	nop
   10a9e:	8b 85 7c ff ff ff    	mov    -0x84(%rbp),%eax
   10aa4:	48 8d 14 c5 00 00 00 00 	lea    0x0(,%rax,8),%rdx
   10aac:	48 8d 05 0d 6a 04 00 	lea    0x46a0d(%rip),%rax        # 574c0 <states>
   10ab3:	48 8b 04 02          	mov    (%rdx,%rax,1),%rax
   10ab7:	48 83 c0 08          	add    $0x8,%rax
   10abb:	48 89 45 b8          	mov    %rax,-0x48(%rbp)
   10abf:	8b 85 7c ff ff ff    	mov    -0x84(%rbp),%eax
   10ac5:	48 8d 14 c5 00 00 00 00 	lea    0x0(,%rax,8),%rdx
   10acd:	48 8d 05 ec 69 04 00 	lea    0x469ec(%rip),%rax        # 574c0 <states>
   10ad4:	48 8b 04 02          	mov    (%rdx,%rax,1),%rax
   10ad8:	48 83 c0 0c          	add    $0xc,%rax
   10adc:	48 89 45 b0          	mov    %rax,-0x50(%rbp)
   10ae0:	8b 85 7c ff ff ff    	mov    -0x84(%rbp),%eax
   10ae6:	8d 50 01             	lea    0x1(%rax),%edx
   10ae9:	48 8b 45 b8          	mov    -0x48(%rbp),%rax
   10aed:	89 10                	mov    %edx,(%rax)
   10aef:	48 8b 45 b0          	mov    -0x50(%rbp),%rax
   10af3:	c7 00 00 00 00 00    	movl   $0x0,(%rax)
   10af9:	8b 85 7c ff ff ff    	mov    -0x84(%rbp),%eax
   10aff:	48 8d 14 c5 00 00 00 00 	lea    0x0(,%rax,8),%rdx
   10b07:	48 8d 05 b2 69 04 00 	lea    0x469b2(%rip),%rax        # 574c0 <states>
   10b0e:	48 8b 04 02          	mov    (%rdx,%rax,1),%rax
   10b12:	8b 95 7c ff ff ff    	mov    -0x84(%rbp),%edx
   10b18:	89 10                	mov    %edx,(%rax)
   10b1a:	8b 85 7c ff ff ff    	mov    -0x84(%rbp),%eax
   10b20:	48 8d 14 c5 00 00 00 00 	lea    0x0(,%rax,8),%rdx
   10b28:	48 8d 05 91 69 04 00 	lea    0x46991(%rip),%rax        # 574c0 <states>
   10b2f:	48 8b 04 02          	mov    (%rdx,%rax,1),%rax
   10b33:	c7 40 10 88 13 00 00 	movl   $0x1388,0x10(%rax)
   10b3a:	eb 0f                	jmp    10b4b <ProcessEvent+0x2dc>
   10b3c:	fa                   	cli
   10b3d:	90                   	nop
   10b3e:	90                   	nop
   10b3f:	90                   	nop
   10b40:	90                   	nop
   10b41:	fa                   	cli
   10b42:	90                   	nop
   10b43:	90                   	nop
   10b44:	90                   	nop
   10b45:	90                   	nop
   10b46:	fa                   	cli
   10b47:	90                   	nop
   10b48:	90                   	nop
   10b49:	90                   	nop
   10b4a:	90                   	nop
   10b4b:	8b 85 7c ff ff ff    	mov    -0x84(%rbp),%eax
   10b51:	48 8d 14 c5 00 00 00 00 	lea    0x0(,%rax,8),%rdx
   10b59:	48 8d 05 60 69 04 00 	lea    0x46960(%rip),%rax        # 574c0 <states>
   10b60:	48 8b 04 02          	mov    (%rdx,%rax,1),%rax
   10b64:	f2 0f 10 05 ac 06 04 00 	movsd  0x406ac(%rip),%xmm0        # 51218 <_IO_stdin_used+0x218>
   10b6c:	f2 0f 11 40 40       	movsd  %xmm0,0x40(%rax)
   10b71:	8b 95 7c ff ff ff    	mov    -0x84(%rbp),%edx
   10b77:	48 8d 0c d5 00 00 00 00 	lea    0x0(,%rdx,8),%rcx
   10b7f:	48 8d 15 3a 69 04 00 	lea    0x4693a(%rip),%rdx        # 574c0 <states>
   10b86:	48 8b 14 11          	mov    (%rcx,%rdx,1),%rdx
   10b8a:	f2 0f 10 40 40       	movsd  0x40(%rax),%xmm0
   10b8f:	f2 0f 11 42 48       	movsd  %xmm0,0x48(%rdx)
   10b94:	81 bd 7c ff ff ff ff 01 00 00 	cmpl   $0x1ff,-0x84(%rbp)
   10b9e:	77 5a                	ja     10bfa <ProcessEvent+0x38b>
   10ba0:	eb 0f                	jmp    10bb1 <ProcessEvent+0x342>
   10ba2:	fa                   	cli
   10ba3:	90                   	nop
   10ba4:	90                   	nop
   10ba5:	90                   	nop
   10ba6:	90                   	nop
   10ba7:	fa                   	cli
   10ba8:	90                   	nop
   10ba9:	90                   	nop
   10baa:	90                   	nop
   10bab:	90                   	nop
   10bac:	fa                   	cli
   10bad:	90                   	nop
   10bae:	90                   	nop
   10baf:	90                   	nop
   10bb0:	90                   	nop
   10bb1:	8b 85 7c ff ff ff    	mov    -0x84(%rbp),%eax
   10bb7:	48 8d 14 c5 00 00 00 00 	lea    0x0(,%rax,8),%rdx
   10bbf:	48 8d 05 fa 68 04 00 	lea    0x468fa(%rip),%rax        # 574c0 <states>
   10bc6:	48 8b 04 02          	mov    (%rdx,%rax,1),%rax
   10bca:	f2 0f 10 05 4e 06 04 00 	movsd  0x4064e(%rip),%xmm0        # 51220 <_IO_stdin_used+0x220>
   10bd2:	f2 0f 11 40 40       	movsd  %xmm0,0x40(%rax)
   10bd7:	8b 95 7c ff ff ff    	mov    -0x84(%rbp),%edx
   10bdd:	48 8d 0c d5 00 00 00 00 	lea    0x0(,%rdx,8),%rcx
   10be5:	48 8d 15 d4 68 04 00 	lea    0x468d4(%rip),%rdx        # 574c0 <states>
   10bec:	48 8b 14 11          	mov    (%rcx,%rdx,1),%rdx
   10bf0:	f2 0f 10 40 40       	movsd  0x40(%rax),%xmm0
   10bf5:	f2 0f 11 42 48       	movsd  %xmm0,0x48(%rdx)
   10bfa:	eb 0f                	jmp    10c0b <ProcessEvent+0x39c>
   10bfc:	fa                   	cli
   10bfd:	90                   	nop
   10bfe:	90                   	nop
   10bff:	90                   	nop
   10c00:	90                   	nop
   10c01:	fa                   	cli
   10c02:	90                   	nop
   10c03:	90                   	nop
   10c04:	90                   	nop
   10c05:	90                   	nop
   10c06:	fa                   	cli
   10c07:	90                   	nop
   10c08:	90                   	nop
   10c09:	90                   	nop
   10c0a:	90                   	nop
   10c0b:	8b 85 7c ff ff ff    	mov    -0x84(%rbp),%eax
   10c11:	48 8d 14 c5 00 00 00 00 	lea    0x0(,%rax,8),%rdx
   10c19:	48 8d 05 a0 68 04 00 	lea    0x468a0(%rip),%rax        # 574c0 <states>
   10c20:	48 8b 04 02          	mov    (%rdx,%rax,1),%rax
   10c24:	f2 0f 10 48 40       	movsd  0x40(%rax),%xmm1
   10c29:	f2 0f 10 05 f7 05 04 00 	movsd  0x405f7(%rip),%xmm0        # 51228 <_IO_stdin_used+0x228>
   10c31:	f2 0f 5e c1          	divsd  %xmm1,%xmm0
   10c35:	f2 0f 2c c0          	cvttsd2si %xmm0,%eax
   10c39:	89 45 90             	mov    %eax,-0x70(%rbp)
   10c3c:	8b 85 7c ff ff ff    	mov    -0x84(%rbp),%eax
   10c42:	48 8d 14 c5 00 00 00 00 	lea    0x0(,%rax,8),%rdx
   10c4a:	48 8d 05 6f 68 04 00 	lea    0x4686f(%rip),%rax        # 574c0 <states>
   10c51:	48 8b 04 02          	mov    (%rdx,%rax,1),%rax
   10c55:	f2 0f 10 05 cb 05 04 00 	movsd  0x405cb(%rip),%xmm0        # 51228 <_IO_stdin_used+0x228>
   10c5d:	f2 0f 11 40 50       	movsd  %xmm0,0x50(%rax)
   10c62:	8b 85 7c ff ff ff    	mov    -0x84(%rbp),%eax
   10c68:	48 8d 14 c5 00 00 00 00 	lea    0x0(,%rax,8),%rdx
   10c70:	48 8d 05 49 68 04 00 	lea    0x46849(%rip),%rax        # 574c0 <states>
   10c77:	48 8b 04 02          	mov    (%rdx,%rax,1),%rax
   10c7b:	f2 0f 10 05 ad 05 04 00 	movsd  0x405ad(%rip),%xmm0        # 51230 <_IO_stdin_used+0x230>
   10c83:	f2 0f 11 40 58       	movsd  %xmm0,0x58(%rax)
   10c88:	8b 85 7c ff ff ff    	mov    -0x84(%rbp),%eax
   10c8e:	48 8d 14 c5 00 00 00 00 	lea    0x0(,%rax,8),%rdx
   10c96:	48 8d 05 23 68 04 00 	lea    0x46823(%rip),%rax        # 574c0 <states>
   10c9d:	48 8b 04 02          	mov    (%rdx,%rax,1),%rax
   10ca1:	c7 40 60 88 13 00 00 	movl   $0x1388,0x60(%rax)
   10ca8:	83 bd 7c ff ff ff 00 	cmpl   $0x0,-0x84(%rbp)
   10caf:	0f 85 48 01 00 00    	jne    10dfd <ProcessEvent+0x58e>
   10cb5:	eb 0f                	jmp    10cc6 <ProcessEvent+0x457>
   10cb7:	fa                   	cli
   10cb8:	90                   	nop
   10cb9:	90                   	nop
   10cba:	90                   	nop
   10cbb:	90                   	nop
   10cbc:	fa                   	cli
   10cbd:	90                   	nop
   10cbe:	90                   	nop
   10cbf:	90                   	nop
   10cc0:	90                   	nop
   10cc1:	fa                   	cli
   10cc2:	90                   	nop
   10cc3:	90                   	nop
   10cc4:	90                   	nop
   10cc5:	90                   	nop
   10cc6:	8b 85 7c ff ff ff    	mov    -0x84(%rbp),%eax
   10ccc:	48 8d 14 c5 00 00 00 00 	lea    0x0(,%rax,8),%rdx
   10cd4:	48 8d 05 e5 67 04 00 	lea    0x467e5(%rip),%rax        # 574c0 <states>
   10cdb:	48 8b 04 02          	mov    (%rdx,%rax,1),%rax
   10cdf:	44 8b 40 0c          	mov    0xc(%rax),%r8d
   10ce3:	8b 85 7c ff ff ff    	mov    -0x84(%rbp),%eax
   10ce9:	48 8d 14 c5 00 00 00 00 	lea    0x0(,%rax,8),%rdx
   10cf1:	48 8d 05 c8 67 04 00 	lea    0x467c8(%rip),%rax        # 574c0 <states>
   10cf8:	48 8b 04 02          	mov    (%rdx,%rax,1),%rax
   10cfc:	44 8b 58 08          	mov    0x8(%rax),%r11d
   10d00:	8b 85 7c ff ff ff    	mov    -0x84(%rbp),%eax
   10d06:	48 8d 14 c5 00 00 00 00 	lea    0x0(,%rax,8),%rdx
   10d0e:	48 8d 05 ab 67 04 00 	lea    0x467ab(%rip),%rax        # 574c0 <states>
   10d15:	48 8b 04 02          	mov    (%rdx,%rax,1),%rax
   10d19:	0f b6 40 6a          	movzbl 0x6a(%rax),%eax
   10d1d:	44 0f b6 d0          	movzbl %al,%r10d
   10d21:	8b 85 7c ff ff ff    	mov    -0x84(%rbp),%eax
   10d27:	48 8d 14 c5 00 00 00 00 	lea    0x0(,%rax,8),%rdx
   10d2f:	48 8d 05 8a 67 04 00 	lea    0x4678a(%rip),%rax        # 574c0 <states>
   10d36:	48 8b 04 02          	mov    (%rdx,%rax,1),%rax
   10d3a:	0f b6 40 69          	movzbl 0x69(%rax),%eax
   10d3e:	0f b6 c8             	movzbl %al,%ecx
   10d41:	8b 85 7c ff ff ff    	mov    -0x84(%rbp),%eax
   10d47:	48 8d 14 c5 00 00 00 00 	lea    0x0(,%rax,8),%rdx
   10d4f:	48 8d 05 6a 67 04 00 	lea    0x4676a(%rip),%rax        # 574c0 <states>
   10d56:	48 8b 04 02          	mov    (%rdx,%rax,1),%rax
   10d5a:	8b 50 60             	mov    0x60(%rax),%edx
   10d5d:	8b 85 7c ff ff ff    	mov    -0x84(%rbp),%eax
   10d63:	48 8d 34 c5 00 00 00 00 	lea    0x0(,%rax,8),%rsi
   10d6b:	48 8d 05 4e 67 04 00 	lea    0x4674e(%rip),%rax        # 574c0 <states>
   10d72:	48 8b 04 06          	mov    (%rsi,%rax,1),%rax
   10d76:	f2 0f 10 48 58       	movsd  0x58(%rax),%xmm1
   10d7b:	8b 85 7c ff ff ff    	mov    -0x84(%rbp),%eax
   10d81:	48 8d 34 c5 00 00 00 00 	lea    0x0(,%rax,8),%rsi
   10d89:	48 8d 05 30 67 04 00 	lea    0x46730(%rip),%rax        # 574c0 <states>
   10d90:	48 8b 04 06          	mov    (%rsi,%rax,1),%rax
   10d94:	f2 0f 10 40 50       	movsd  0x50(%rax),%xmm0
   10d99:	8b 85 7c ff ff ff    	mov    -0x84(%rbp),%eax
   10d9f:	48 8d 34 c5 00 00 00 00 	lea    0x0(,%rax,8),%rsi
   10da7:	48 8d 05 12 67 04 00 	lea    0x46712(%rip),%rax        # 574c0 <states>
   10dae:	48 8b 04 06          	mov    (%rsi,%rax,1),%rax
   10db2:	48 8b 70 40          	mov    0x40(%rax),%rsi
   10db6:	8b 05 c4 43 04 00    	mov    0x443c4(%rip),%eax        # 55180 <complete_calls>
   10dbc:	48 8d 3d 65 02 04 00 	lea    0x40265(%rip),%rdi        # 51028 <_IO_stdin_used+0x28>
   10dc3:	44 8b 4d 90          	mov    -0x70(%rbp),%r9d
   10dc7:	41 51                	push   %r9
   10dc9:	41 50                	push   %r8
   10dcb:	45 89 d9             	mov    %r11d,%r9d
   10dce:	45 89 d0             	mov    %r10d,%r8d
   10dd1:	66 0f 28 d1          	movapd %xmm1,%xmm2
   10dd5:	66 0f 28 c8          	movapd %xmm0,%xmm1
   10dd9:	66 48 0f 6e c6       	movq   %rsi,%xmm0
   10dde:	89 c6                	mov    %eax,%esi
   10de0:	b8 03 00 00 00       	mov    $0x3,%eax
   10de5:	e8 56 12 ff ff       	call   2040 <printf@plt>
   10dea:	48 83 c4 10          	add    $0x10,%rsp
   10dee:	48 8b 05 8b 66 04 00 	mov    0x4668b(%rip),%rax        # 57480 <stdout@GLIBC_2.2.5>
   10df5:	48 89 c7             	mov    %rax,%rdi
   10df8:	e8 a3 14 ff ff       	call   22a0 <fflush@plt>
   10dfd:	eb 0f                	jmp    10e0e <ProcessEvent+0x59f>
   10dff:	fa                   	cli
   10e00:	90                   	nop
   10e01:	90                   	nop
   10e02:	90                   	nop
   10e03:	90                   	nop
   10e04:	fa                   	cli
   10e05:	90                   	nop
   10e06:	90                   	nop
   10e07:	90                   	nop
   10e08:	90                   	nop
   10e09:	fa                   	cli
   10e0a:	90                   	nop
   10e0b:	90                   	nop
   10e0c:	90                   	nop
   10e0d:	90                   	nop
   10e0e:	8b 85 7c ff ff ff    	mov    -0x84(%rbp),%eax
   10e14:	48 8d 14 c5 00 00 00 00 	lea    0x0(,%rax,8),%rdx
   10e1c:	48 8d 05 9d 66 04 00 	lea    0x4669d(%rip),%rax        # 574c0 <states>
   10e23:	48 8b 04 02          	mov    (%rdx,%rax,1),%rax
   10e27:	8b 48 60             	mov    0x60(%rax),%ecx
   10e2a:	8b 85 7c ff ff ff    	mov    -0x84(%rbp),%eax
   10e30:	48 8d 14 c5 00 00 00 00 	lea    0x0(,%rax,8),%rdx
   10e38:	48 8d 05 81 66 04 00 	lea    0x46681(%rip),%rax        # 574c0 <states>
   10e3f:	48 8b 04 02          	mov    (%rdx,%rax,1),%rax
   10e43:	89 ca                	mov    %ecx,%edx
   10e45:	89 50 10             	mov    %edx,0x10(%rax)
   10e48:	eb 0f                	jmp    10e59 <ProcessEvent+0x5ea>
   10e4a:	fa                   	cli
   10e4b:	90                   	nop
   10e4c:	90                   	nop
   10e4d:	90                   	nop
   10e4e:	90                   	nop
   10e4f:	fa                   	cli
   10e50:	90                   	nop
   10e51:	90                   	nop
   10e52:	90                   	nop
   10e53:	90                   	nop
   10e54:	fa                   	cli
   10e55:	90                   	nop
   10e56:	90                   	nop
   10e57:	90                   	nop
   10e58:	90                   	nop
   10e59:	bf e8 04 00 00       	mov    $0x4e8,%edi
   10e5e:	e8 fd 45 00 00       	call   15460 <__wrap_malloc>
   10e63:	48 89 45 c8          	mov    %rax,-0x38(%rbp)
   10e67:	8b 85 7c ff ff ff    	mov    -0x84(%rbp),%eax
   10e6d:	48 8d 14 c5 00 00 00 00 	lea    0x0(,%rax,8),%rdx
   10e75:	48 8d 05 44 66 04 00 	lea    0x46644(%rip),%rax        # 574c0 <states>
   10e7c:	48 8b 04 02          	mov    (%rdx,%rax,1),%rax
   10e80:	48 8b 55 c8          	mov    -0x38(%rbp),%rdx
   10e84:	48 89 50 70          	mov    %rdx,0x70(%rax)
   10e88:	c7 45 94 00 00 00 00 	movl   $0x0,-0x6c(%rbp)
   10e8f:	eb 42                	jmp    10ed3 <ProcessEvent+0x664>
   10e91:	eb 0f                	jmp    10ea2 <ProcessEvent+0x633>
   10e93:	fa                   	cli
   10e94:	90                   	nop
   10e95:	90                   	nop
   10e96:	90                   	nop
   10e97:	90                   	nop
   10e98:	fa                   	cli
   10e99:	90                   	nop
   10e9a:	90                   	nop
   10e9b:	90                   	nop
   10e9c:	90                   	nop
   10e9d:	fa                   	cli
   10e9e:	90                   	nop
   10e9f:	90                   	nop
   10ea0:	90                   	nop
   10ea1:	90                   	nop
   10ea2:	8b 85 7c ff ff ff    	mov    -0x84(%rbp),%eax
   10ea8:	48 8d 14 c5 00 00 00 00 	lea    0x0(,%rax,8),%rdx
   10eb0:	48 8d 05 09 66 04 00 	lea    0x46609(%rip),%rax        # 574c0 <states>
   10eb7:	48 8b 04 02          	mov    (%rdx,%rax,1),%rax
   10ebb:	48 8b 40 70          	mov    0x70(%rax),%rax
   10ebf:	8b 55 94             	mov    -0x6c(%rbp),%edx
   10ec2:	48 c1 e2 02          	shl    $0x2,%rdx
   10ec6:	48 01 d0             	add    %rdx,%rax
   10ec9:	c7 00 00 00 00 00    	movl   $0x0,(%rax)
   10ecf:	83 45 94 01          	addl   $0x1,-0x6c(%rbp)
   10ed3:	8b 55 94             	mov    -0x6c(%rbp),%edx
   10ed6:	8b 85 7c ff ff ff    	mov    -0x84(%rbp),%eax
   10edc:	48 8d 0c c5 00 00 00 00 	lea    0x0(,%rax,8),%rcx
   10ee4:	48 8d 05 d5 65 04 00 	lea    0x465d5(%rip),%rax        # 574c0 <states>
   10eeb:	48 8b 04 01          	mov    (%rcx,%rax,1),%rax
   10eef:	8b 40 10             	mov    0x10(%rax),%eax
   10ef2:	c1 e8 05             	shr    $0x5,%eax
   10ef5:	89 c0                	mov    %eax,%eax
   10ef7:	48 83 c0 01          	add    $0x1,%rax
   10efb:	48 39 c2             	cmp    %rax,%rdx
   10efe:	72 91                	jb     10e91 <ProcessEvent+0x622>
   10f00:	c7 45 98 00 00 00 00 	movl   $0x0,-0x68(%rbp)
   10f07:	eb 5e                	jmp    10f67 <ProcessEvent+0x6f8>
   10f09:	eb 0f                	jmp    10f1a <ProcessEvent+0x6ab>
   10f0b:	fa                   	cli
   10f0c:	90                   	nop
   10f0d:	90                   	nop
   10f0e:	90                   	nop
   10f0f:	90                   	nop
   10f10:	fa                   	cli
   10f11:	90                   	nop
   10f12:	90                   	nop
   10f13:	90                   	nop
   10f14:	90                   	nop
   10f15:	fa                   	cli
   10f16:	90                   	nop
   10f17:	90                   	nop
   10f18:	90                   	nop
   10f19:	90                   	nop
   10f1a:	48 8b 55 b0          	mov    -0x50(%rbp),%rdx
   10f1e:	48 8b 45 b8          	mov    -0x48(%rbp),%rax
   10f22:	48 89 d6             	mov    %rdx,%rsi
   10f25:	48 89 c7             	mov    %rax,%rdi
   10f28:	e8 e3 4b 00 00       	call   15b10 <Random>
   10f2d:	f2 0f 10 0d 03 03 04 00 	movsd  0x40303(%rip),%xmm1        # 51238 <_IO_stdin_used+0x238>
   10f35:	f2 0f 59 c1          	mulsd  %xmm1,%xmm0
   10f39:	f2 0f 11 45 a0       	movsd  %xmm0,-0x60(%rbp)
   10f3e:	8b 85 7c ff ff ff    	mov    -0x84(%rbp),%eax
   10f44:	48 8b 7d a0          	mov    -0x60(%rbp),%rdi
   10f48:	b9 00 00 00 00       	mov    $0x0,%ecx
   10f4d:	ba 00 00 00 00       	mov    $0x0,%edx
   10f52:	be 14 00 00 00       	mov    $0x14,%esi
   10f57:	66 48 0f 6e c7       	movq   %rdi,%xmm0
   10f5c:	89 c7                	mov    %eax,%edi
   10f5e:	e8 8d 48 00 00       	call   157f0 <ScheduleNewEvent>
   10f63:	83 45 98 01          	addl   $0x1,-0x68(%rbp)
   10f67:	8b 45 98             	mov    -0x68(%rbp),%eax
   10f6a:	3b 45 90             	cmp    -0x70(%rbp),%eax
   10f6d:	7c 9a                	jl     10f09 <ProcessEvent+0x69a>
   10f6f:	e9 5b 09 00 00       	jmp    118cf <ProcessEvent+0x1060>
   10f74:	eb 0f                	jmp    10f85 <ProcessEvent+0x716>
   10f76:	fa                   	cli
   10f77:	90                   	nop
   10f78:	90                   	nop
   10f79:	90                   	nop
   10f7a:	90                   	nop
   10f7b:	fa                   	cli
   10f7c:	90                   	nop
   10f7d:	90                   	nop
   10f7e:	90                   	nop
   10f7f:	90                   	nop
   10f80:	fa                   	cli
   10f81:	90                   	nop
   10f82:	90                   	nop
   10f83:	90                   	nop
   10f84:	90                   	nop
   10f85:	eb 0f                	jmp    10f96 <ProcessEvent+0x727>
   10f87:	fa                   	cli
   10f88:	90                   	nop
   10f89:	90                   	nop
   10f8a:	90                   	nop
   10f8b:	90                   	nop
   10f8c:	fa                   	cli
   10f8d:	90                   	nop
   10f8e:	90                   	nop
   10f8f:	90                   	nop
   10f90:	90                   	nop
   10f91:	fa                   	cli
   10f92:	90                   	nop
   10f93:	90                   	nop
   10f94:	90                   	nop
   10f95:	90                   	nop
   10f96:	8b 85 7c ff ff ff    	mov    -0x84(%rbp),%eax
   10f9c:	48 8d 14 c5 00 00 00 00 	lea    0x0(,%rax,8),%rdx
   10fa4:	48 8d 05 15 65 04 00 	lea    0x46515(%rip),%rax        # 574c0 <states>
   10fab:	48 8b 04 02          	mov    (%rdx,%rax,1),%rax
   10faf:	f2 0f 10 48 40       	movsd  0x40(%rax),%xmm1
   10fb4:	f2 0f 10 05 6c 02 04 00 	movsd  0x4026c(%rip),%xmm0        # 51228 <_IO_stdin_used+0x228>
   10fbc:	f2 0f 5e c1          	divsd  %xmm1,%xmm0
   10fc0:	f2 0f 2c c0          	cvttsd2si %xmm0,%eax
   10fc4:	89 45 90             	mov    %eax,-0x70(%rbp)
   10fc7:	c7 45 8c 00 00 00 00 	movl   $0x0,-0x74(%rbp)
   10fce:	eb 0f                	jmp    10fdf <ProcessEvent+0x770>
   10fd0:	fa                   	cli
   10fd1:	90                   	nop
   10fd2:	90                   	nop
   10fd3:	90                   	nop
   10fd4:	90                   	nop
   10fd5:	fa                   	cli
   10fd6:	90                   	nop
   10fd7:	90                   	nop
   10fd8:	90                   	nop
   10fd9:	90                   	nop
   10fda:	fa                   	cli
   10fdb:	90                   	nop
   10fdc:	90                   	nop
   10fdd:	90                   	nop
   10fde:	90                   	nop
   10fdf:	eb 0f                	jmp    10ff0 <ProcessEvent+0x781>
   10fe1:	fa                   	cli
   10fe2:	90                   	nop
   10fe3:	90                   	nop
   10fe4:	90                   	nop
   10fe5:	90                   	nop
   10fe6:	fa                   	cli
   10fe7:	90                   	nop
   10fe8:	90                   	nop
   10fe9:	90                   	nop
   10fea:	90                   	nop
   10feb:	fa                   	cli
   10fec:	90                   	nop
   10fed:	90                   	nop
   10fee:	90                   	nop
   10fef:	90                   	nop
   10ff0:	8b 85 7c ff ff ff    	mov    -0x84(%rbp),%eax
   10ff6:	48 8d 14 c5 00 00 00 00 	lea    0x0(,%rax,8),%rdx
   10ffe:	48 8d 05 bb 64 04 00 	lea    0x464bb(%rip),%rax        # 574c0 <states>
   11005:	48 8b 04 02          	mov    (%rdx,%rax,1),%rax
   11009:	f2 0f 10 48 40       	movsd  0x40(%rax),%xmm1
   1100e:	f2 0f 10 05 12 02 04 00 	movsd  0x40212(%rip),%xmm0        # 51228 <_IO_stdin_used+0x228>
   11016:	f2 0f 5e c1          	divsd  %xmm1,%xmm0
   1101a:	f2 0f 2c c0          	cvttsd2si %xmm0,%eax
   1101e:	89 45 90             	mov    %eax,-0x70(%rbp)
   11021:	eb 0f                	jmp    11032 <ProcessEvent+0x7c3>
   11023:	fa                   	cli
   11024:	90                   	nop
   11025:	90                   	nop
   11026:	90                   	nop
   11027:	90                   	nop
   11028:	fa                   	cli
   11029:	90                   	nop
   1102a:	90                   	nop
   1102b:	90                   	nop
   1102c:	90                   	nop
   1102d:	fa                   	cli
   1102e:	90                   	nop
   1102f:	90                   	nop
   11030:	90                   	nop
   11031:	90                   	nop
   11032:	8b 85 7c ff ff ff    	mov    -0x84(%rbp),%eax
   11038:	48 8d 14 c5 00 00 00 00 	lea    0x0(,%rax,8),%rdx
   11040:	48 8d 05 79 64 04 00 	lea    0x46479(%rip),%rax        # 574c0 <states>
   11047:	48 8b 04 02          	mov    (%rdx,%rax,1),%rax
   1104b:	8b 40 14             	mov    0x14(%rax),%eax
   1104e:	83 c0 01             	add    $0x1,%eax
   11051:	89 45 9c             	mov    %eax,-0x64(%rbp)
   11054:	8b 85 7c ff ff ff    	mov    -0x84(%rbp),%eax
   1105a:	48 8d 14 c5 00 00 00 00 	lea    0x0(,%rax,8),%rdx
   11062:	48 8d 05 57 64 04 00 	lea    0x46457(%rip),%rax        # 574c0 <states>
   11069:	48 8b 04 02          	mov    (%rdx,%rax,1),%rax
   1106d:	8b 55 9c             	mov    -0x64(%rbp),%edx
   11070:	89 50 14             	mov    %edx,0x14(%rax)
   11073:	8b 85 7c ff ff ff    	mov    -0x84(%rbp),%eax
   11079:	48 8d 14 c5 00 00 00 00 	lea    0x0(,%rax,8),%rdx
   11081:	48 8d 05 38 64 04 00 	lea    0x46438(%rip),%rax        # 574c0 <states>
   11088:	48 8b 04 02          	mov    (%rdx,%rax,1),%rax
   1108c:	8b 40 10             	mov    0x10(%rax),%eax
   1108f:	85 c0                	test   %eax,%eax
   11091:	75 77                	jne    1110a <ProcessEvent+0x89b>
   11093:	eb 0f                	jmp    110a4 <ProcessEvent+0x835>
   11095:	fa                   	cli
   11096:	90                   	nop
   11097:	90                   	nop
   11098:	90                   	nop
   11099:	90                   	nop
   1109a:	fa                   	cli
   1109b:	90                   	nop
   1109c:	90                   	nop
   1109d:	90                   	nop
   1109e:	90                   	nop
   1109f:	fa                   	cli
   110a0:	90                   	nop
   110a1:	90                   	nop
   110a2:	90                   	nop
   110a3:	90                   	nop
   110a4:	8b 85 7c ff ff ff    	mov    -0x84(%rbp),%eax
   110aa:	48 8d 14 c5 00 00 00 00 	lea    0x0(,%rax,8),%rdx
   110b2:	48 8d 05 07 64 04 00 	lea    0x46407(%rip),%rax        # 574c0 <states>
   110b9:	48 8b 04 02          	mov    (%rdx,%rax,1),%rax
   110bd:	8b 40 1c             	mov    0x1c(%rax),%eax
   110c0:	83 c0 01             	add    $0x1,%eax
   110c3:	89 45 9c             	mov    %eax,-0x64(%rbp)
   110c6:	8b 85 7c ff ff ff    	mov    -0x84(%rbp),%eax
   110cc:	48 8d 14 c5 00 00 00 00 	lea    0x0(,%rax,8),%rdx
   110d4:	48 8d 05 e5 63 04 00 	lea    0x463e5(%rip),%rax        # 574c0 <states>
   110db:	48 8b 04 02          	mov    (%rdx,%rax,1),%rax
   110df:	8b 55 9c             	mov    -0x64(%rbp),%edx
   110e2:	89 50 1c             	mov    %edx,0x1c(%rax)
   110e5:	eb 0f                	jmp    110f6 <ProcessEvent+0x887>
   110e7:	fa                   	cli
   110e8:	90                   	nop
   110e9:	90                   	nop
   110ea:	90                   	nop
   110eb:	90                   	nop
   110ec:	fa                   	cli
   110ed:	90                   	nop
   110ee:	90                   	nop
   110ef:	90                   	nop
   110f0:	90                   	nop
   110f1:	fa                   	cli
   110f2:	90                   	nop
   110f3:	90                   	nop
   110f4:	90                   	nop
   110f5:	90                   	nop
   110f6:	48 8d 05 d3 ff 03 00 	lea    0x3ffd3(%rip),%rax        # 510d0 <_IO_stdin_used+0xd0>
   110fd:	48 89 c7             	mov    %rax,%rdi
   11100:	e8 7b 0f ff ff       	call   2080 <puts@plt>
   11105:	e9 28 02 00 00       	jmp    11332 <ProcessEvent+0xac3>
   1110a:	eb 0f                	jmp    1111b <ProcessEvent+0x8ac>
   1110c:	fa                   	cli
   1110d:	90                   	nop
   1110e:	90                   	nop
   1110f:	90                   	nop
   11110:	90                   	nop
   11111:	fa                   	cli
   11112:	90                   	nop
   11113:	90                   	nop
   11114:	90                   	nop
   11115:	90                   	nop
   11116:	fa                   	cli
   11117:	90                   	nop
   11118:	90                   	nop
   11119:	90                   	nop
   1111a:	90                   	nop
   1111b:	8b 85 7c ff ff ff    	mov    -0x84(%rbp),%eax
   11121:	48 8d 14 c5 00 00 00 00 	lea    0x0(,%rax,8),%rdx
   11129:	48 8d 05 90 63 04 00 	lea    0x46390(%rip),%rax        # 574c0 <states>
   11130:	48 8b 04 02          	mov    (%rdx,%rax,1),%rax
   11134:	8b 40 10             	mov    0x10(%rax),%eax
   11137:	83 e8 01             	sub    $0x1,%eax
   1113a:	89 45 9c             	mov    %eax,-0x64(%rbp)
   1113d:	8b 85 7c ff ff ff    	mov    -0x84(%rbp),%eax
   11143:	48 8d 14 c5 00 00 00 00 	lea    0x0(,%rax,8),%rdx
   1114b:	48 8d 05 6e 63 04 00 	lea    0x4636e(%rip),%rax        # 574c0 <states>
   11152:	48 8b 04 02          	mov    (%rdx,%rax,1),%rax
   11156:	8b 55 9c             	mov    -0x64(%rbp),%edx
   11159:	89 50 10             	mov    %edx,0x10(%rax)
   1115c:	8b 85 7c ff ff ff    	mov    -0x84(%rbp),%eax
   11162:	48 8d 14 c5 00 00 00 00 	lea    0x0(,%rax,8),%rdx
   1116a:	48 8d 05 4f 63 04 00 	lea    0x4634f(%rip),%rax        # 574c0 <states>
   11171:	48 8b 04 02          	mov    (%rdx,%rax,1),%rax
   11175:	48 8b 55 b0          	mov    -0x50(%rbp),%rdx
   11179:	48 8b 4d b8          	mov    -0x48(%rbp),%rcx
   1117d:	48 89 ce             	mov    %rcx,%rsi
   11180:	48 89 c7             	mov    %rax,%rdi
   11183:	e8 34 0d 00 00       	call   11ebc <allocation>
   11188:	89 45 e0             	mov    %eax,-0x20(%rbp)
   1118b:	8b 85 7c ff ff ff    	mov    -0x84(%rbp),%eax
   11191:	89 45 d4             	mov    %eax,-0x2c(%rbp)
   11194:	f2 0f 10 85 70 ff ff ff 	movsd  -0x90(%rbp),%xmm0
   1119c:	f2 0f 11 45 d8       	movsd  %xmm0,-0x28(%rbp)
   111a1:	eb 0f                	jmp    111b2 <ProcessEvent+0x943>
   111a3:	fa                   	cli
   111a4:	90                   	nop
   111a5:	90                   	nop
   111a6:	90                   	nop
   111a7:	90                   	nop
   111a8:	fa                   	cli
   111a9:	90                   	nop
   111aa:	90                   	nop
   111ab:	90                   	nop
   111ac:	90                   	nop
   111ad:	fa                   	cli
   111ae:	90                   	nop
   111af:	90                   	nop
   111b0:	90                   	nop
   111b1:	90                   	nop
   111b2:	8b 85 7c ff ff ff    	mov    -0x84(%rbp),%eax
   111b8:	48 8d 14 c5 00 00 00 00 	lea    0x0(,%rax,8),%rdx
   111c0:	48 8d 05 f9 62 04 00 	lea    0x462f9(%rip),%rax        # 574c0 <states>
   111c7:	48 8b 04 02          	mov    (%rdx,%rax,1),%rax
   111cb:	48 8b 40 50          	mov    0x50(%rax),%rax
   111cf:	48 8b 4d b0          	mov    -0x50(%rbp),%rcx
   111d3:	48 8b 55 b8          	mov    -0x48(%rbp),%rdx
   111d7:	48 89 ce             	mov    %rcx,%rsi
   111da:	48 89 d7             	mov    %rdx,%rdi
   111dd:	66 48 0f 6e c0       	movq   %rax,%xmm0
   111e2:	e8 a9 49 00 00       	call   15b90 <Expent>
   111e7:	66 48 0f 7e c0       	movq   %xmm0,%rax
   111ec:	66 48 0f 6e c0       	movq   %rax,%xmm0
   111f1:	f2 0f 58 85 70 ff ff ff 	addsd  -0x90(%rbp),%xmm0
   111f9:	f2 0f 11 45 e8       	movsd  %xmm0,-0x18(%rbp)
   111fe:	90                   	nop
   111ff:	eb 0f                	jmp    11210 <ProcessEvent+0x9a1>
   11201:	fa                   	cli
   11202:	90                   	nop
   11203:	90                   	nop
   11204:	90                   	nop
   11205:	90                   	nop
   11206:	fa                   	cli
   11207:	90                   	nop
   11208:	90                   	nop
   11209:	90                   	nop
   1120a:	90                   	nop
   1120b:	fa                   	cli
   1120c:	90                   	nop
   1120d:	90                   	nop
   1120e:	90                   	nop
   1120f:	90                   	nop
   11210:	8b 85 7c ff ff ff    	mov    -0x84(%rbp),%eax
   11216:	48 8d 14 c5 00 00 00 00 	lea    0x0(,%rax,8),%rdx
   1121e:	48 8d 05 9b 62 04 00 	lea    0x4629b(%rip),%rax        # 574c0 <states>
   11225:	48 8b 04 02          	mov    (%rdx,%rax,1),%rax
   11229:	48 8b 40 58          	mov    0x58(%rax),%rax
   1122d:	48 8b 4d b0          	mov    -0x50(%rbp),%rcx
   11231:	48 8b 55 b8          	mov    -0x48(%rbp),%rdx
   11235:	48 89 ce             	mov    %rcx,%rsi
   11238:	48 89 d7             	mov    %rdx,%rdi
   1123b:	66 48 0f 6e c0       	movq   %rax,%xmm0
   11240:	e8 4b 49 00 00       	call   15b90 <Expent>
   11245:	f2 0f 10 8d 70 ff ff ff 	movsd  -0x90(%rbp),%xmm1
   1124d:	f2 0f 58 c1          	addsd  %xmm1,%xmm0
   11251:	f2 0f 11 45 c0       	movsd  %xmm0,-0x40(%rbp)
   11256:	90                   	nop
   11257:	f2 0f 10 4d e8       	movsd  -0x18(%rbp),%xmm1
   1125c:	f2 0f 10 55 c0       	movsd  -0x40(%rbp),%xmm2
   11261:	f2 0f 10 05 d7 ff 03 00 	movsd  0x3ffd7(%rip),%xmm0        # 51240 <_IO_stdin_used+0x240>
   11269:	f2 0f 58 c2          	addsd  %xmm2,%xmm0
   1126d:	66 0f 2f c1          	comisd %xmm1,%xmm0
   11271:	72 3a                	jb     112ad <ProcessEvent+0xa3e>
   11273:	eb 0f                	jmp    11284 <ProcessEvent+0xa15>
   11275:	fa                   	cli
   11276:	90                   	nop
   11277:	90                   	nop
   11278:	90                   	nop
   11279:	90                   	nop
   1127a:	fa                   	cli
   1127b:	90                   	nop
   1127c:	90                   	nop
   1127d:	90                   	nop
   1127e:	90                   	nop
   1127f:	fa                   	cli
   11280:	90                   	nop
   11281:	90                   	nop
   11282:	90                   	nop
   11283:	90                   	nop
   11284:	48 8b 7d e8          	mov    -0x18(%rbp),%rdi
   11288:	8b 85 7c ff ff ff    	mov    -0x84(%rbp),%eax
   1128e:	48 8d 55 d0          	lea    -0x30(%rbp),%rdx
   11292:	b9 28 00 00 00       	mov    $0x28,%ecx
   11297:	be 15 00 00 00       	mov    $0x15,%esi
   1129c:	66 48 0f 6e c7       	movq   %rdi,%xmm0
   112a1:	89 c7                	mov    %eax,%edi
   112a3:	e8 48 45 00 00       	call   157f0 <ScheduleNewEvent>
   112a8:	e9 85 00 00 00       	jmp    11332 <ProcessEvent+0xac3>
   112ad:	eb 0f                	jmp    112be <ProcessEvent+0xa4f>
   112af:	fa                   	cli
   112b0:	90                   	nop
   112b1:	90                   	nop
   112b2:	90                   	nop
   112b3:	90                   	nop
   112b4:	fa                   	cli
   112b5:	90                   	nop
   112b6:	90                   	nop
   112b7:	90                   	nop
   112b8:	90                   	nop
   112b9:	fa                   	cli
   112ba:	90                   	nop
   112bb:	90                   	nop
   112bc:	90                   	nop
   112bd:	90                   	nop
   112be:	8b 85 7c ff ff ff    	mov    -0x84(%rbp),%eax
   112c4:	48 8b 4d b0          	mov    -0x50(%rbp),%rcx
   112c8:	48 8b 55 b8          	mov    -0x48(%rbp),%rdx
   112cc:	be e8 03 00 00       	mov    $0x3e8,%esi
   112d1:	89 c7                	mov    %eax,%edi
   112d3:	e8 a4 10 00 00       	call   1237c <FindReceiver>
   112d8:	89 45 d0             	mov    %eax,-0x30(%rbp)
   112db:	8b 85 7c ff ff ff    	mov    -0x84(%rbp),%eax
   112e1:	48 8d 55 d0          	lea    -0x30(%rbp),%rdx
   112e5:	48 8b 7d c0          	mov    -0x40(%rbp),%rdi
   112e9:	b9 28 00 00 00       	mov    $0x28,%ecx
   112ee:	be 1e 00 00 00       	mov    $0x1e,%esi
   112f3:	66 48 0f 6e c7       	movq   %rdi,%xmm0
   112f8:	89 c7                	mov    %eax,%edi
   112fa:	e8 f1 44 00 00       	call   157f0 <ScheduleNewEvent>
   112ff:	f2 0f 10 4d c0       	movsd  -0x40(%rbp),%xmm1
   11304:	f2 0f 10 05 34 ff 03 00 	movsd  0x3ff34(%rip),%xmm0        # 51240 <_IO_stdin_used+0x240>
   1130c:	f2 0f 58 c8          	addsd  %xmm0,%xmm1
   11310:	66 48 0f 7e cf       	movq   %xmm1,%rdi
   11315:	8b 45 d0             	mov    -0x30(%rbp),%eax
   11318:	48 8d 55 d0          	lea    -0x30(%rbp),%rdx
   1131c:	b9 28 00 00 00       	mov    $0x28,%ecx
   11321:	be 20 00 00 00       	mov    $0x20,%esi
   11326:	66 48 0f 6e c7       	movq   %rdi,%xmm0
   1132b:	89 c7                	mov    %eax,%edi
   1132d:	e8 be 44 00 00       	call   157f0 <ScheduleNewEvent>
   11332:	83 7d 8c 01          	cmpl   $0x1,-0x74(%rbp)
   11336:	0f 85 92 05 00 00    	jne    118ce <ProcessEvent+0x105f>
   1133c:	eb 0f                	jmp    1134d <ProcessEvent+0xade>
   1133e:	fa                   	cli
   1133f:	90                   	nop
   11340:	90                   	nop
   11341:	90                   	nop
   11342:	90                   	nop
   11343:	fa                   	cli
   11344:	90                   	nop
   11345:	90                   	nop
   11346:	90                   	nop
   11347:	90                   	nop
   11348:	fa                   	cli
   11349:	90                   	nop
   1134a:	90                   	nop
   1134b:	90                   	nop
   1134c:	90                   	nop
   1134d:	eb 0f                	jmp    1135e <ProcessEvent+0xaef>
   1134f:	fa                   	cli
   11350:	90                   	nop
   11351:	90                   	nop
   11352:	90                   	nop
   11353:	90                   	nop
   11354:	fa                   	cli
   11355:	90                   	nop
   11356:	90                   	nop
   11357:	90                   	nop
   11358:	90                   	nop
   11359:	fa                   	cli
   1135a:	90                   	nop
   1135b:	90                   	nop
   1135c:	90                   	nop
   1135d:	90                   	nop
   1135e:	66 0f ef db          	pxor   %xmm3,%xmm3
   11362:	f2 0f 2a 5d 90       	cvtsi2sdl -0x70(%rbp),%xmm3
   11367:	f2 0f 11 9d 50 ff ff ff 	movsd  %xmm3,-0xb0(%rbp)
   1136f:	8b 85 7c ff ff ff    	mov    -0x84(%rbp),%eax
   11375:	48 8d 14 c5 00 00 00 00 	lea    0x0(,%rax,8),%rdx
   1137d:	48 8d 05 3c 61 04 00 	lea    0x4613c(%rip),%rax        # 574c0 <states>
   11384:	48 8b 04 02          	mov    (%rdx,%rax,1),%rax
   11388:	48 8b 40 40          	mov    0x40(%rax),%rax
   1138c:	48 8b 4d b0          	mov    -0x50(%rbp),%rcx
   11390:	48 8b 55 b8          	mov    -0x48(%rbp),%rdx
   11394:	48 89 ce             	mov    %rcx,%rsi
   11397:	48 89 d7             	mov    %rdx,%rdi
   1139a:	66 48 0f 6e c0       	movq   %rax,%xmm0
   1139f:	e8 ec 47 00 00       	call   15b90 <Expent>
   113a4:	f2 0f 59 85 50 ff ff ff 	mulsd  -0xb0(%rbp),%xmm0
   113ac:	f2 0f 10 8d 70 ff ff ff 	movsd  -0x90(%rbp),%xmm1
   113b4:	f2 0f 58 c1          	addsd  %xmm1,%xmm0
   113b8:	f2 0f 11 45 a0       	movsd  %xmm0,-0x60(%rbp)
   113bd:	90                   	nop
   113be:	8b 85 7c ff ff ff    	mov    -0x84(%rbp),%eax
   113c4:	48 8b 7d a0          	mov    -0x60(%rbp),%rdi
   113c8:	b9 00 00 00 00       	mov    $0x0,%ecx
   113cd:	ba 00 00 00 00       	mov    $0x0,%edx
   113d2:	be 14 00 00 00       	mov    $0x14,%esi
   113d7:	66 48 0f 6e c7       	movq   %rdi,%xmm0
   113dc:	89 c7                	mov    %eax,%edi
   113de:	e8 0d 44 00 00       	call   157f0 <ScheduleNewEvent>
   113e3:	e9 e6 04 00 00       	jmp    118ce <ProcessEvent+0x105f>
   113e8:	eb 0f                	jmp    113f9 <ProcessEvent+0xb8a>
   113ea:	fa                   	cli
   113eb:	90                   	nop
   113ec:	90                   	nop
   113ed:	90                   	nop
   113ee:	90                   	nop
   113ef:	fa                   	cli
   113f0:	90                   	nop
   113f1:	90                   	nop
   113f2:	90                   	nop
   113f3:	90                   	nop
   113f4:	fa                   	cli
   113f5:	90                   	nop
   113f6:	90                   	nop
   113f7:	90                   	nop
   113f8:	90                   	nop
   113f9:	eb 0f                	jmp    1140a <ProcessEvent+0xb9b>
   113fb:	fa                   	cli
   113fc:	90                   	nop
   113fd:	90                   	nop
   113fe:	90                   	nop
   113ff:	90                   	nop
   11400:	fa                   	cli
   11401:	90                   	nop
   11402:	90                   	nop
   11403:	90                   	nop
   11404:	90                   	nop
   11405:	fa                   	cli
   11406:	90                   	nop
   11407:	90                   	nop
   11408:	90                   	nop
   11409:	90                   	nop
   1140a:	8b 85 7c ff ff ff    	mov    -0x84(%rbp),%eax
   11410:	48 8d 14 c5 00 00 00 00 	lea    0x0(,%rax,8),%rdx
   11418:	48 8d 05 a1 60 04 00 	lea    0x460a1(%rip),%rax        # 574c0 <states>
   1141f:	48 8b 04 02          	mov    (%rdx,%rax,1),%rax
   11423:	8b 40 10             	mov    0x10(%rax),%eax
   11426:	83 c0 01             	add    $0x1,%eax
   11429:	89 45 9c             	mov    %eax,-0x64(%rbp)
   1142c:	8b 85 7c ff ff ff    	mov    -0x84(%rbp),%eax
   11432:	48 8d 14 c5 00 00 00 00 	lea    0x0(,%rax,8),%rdx
   1143a:	48 8d 05 7f 60 04 00 	lea    0x4607f(%rip),%rax        # 574c0 <states>
   11441:	48 8b 04 02          	mov    (%rdx,%rax,1),%rax
   11445:	8b 55 9c             	mov    -0x64(%rbp),%edx
   11448:	89 50 10             	mov    %edx,0x10(%rax)
   1144b:	eb 0f                	jmp    1145c <ProcessEvent+0xbed>
   1144d:	fa                   	cli
   1144e:	90                   	nop
   1144f:	90                   	nop
   11450:	90                   	nop
   11451:	90                   	nop
   11452:	fa                   	cli
   11453:	90                   	nop
   11454:	90                   	nop
   11455:	90                   	nop
   11456:	90                   	nop
   11457:	fa                   	cli
   11458:	90                   	nop
   11459:	90                   	nop
   1145a:	90                   	nop
   1145b:	90                   	nop
   1145c:	8b 85 7c ff ff ff    	mov    -0x84(%rbp),%eax
   11462:	48 8d 14 c5 00 00 00 00 	lea    0x0(,%rax,8),%rdx
   1146a:	48 8d 05 4f 60 04 00 	lea    0x4604f(%rip),%rax        # 574c0 <states>
   11471:	48 8b 04 02          	mov    (%rdx,%rax,1),%rax
   11475:	8b 40 18             	mov    0x18(%rax),%eax
   11478:	83 c0 01             	add    $0x1,%eax
   1147b:	89 45 9c             	mov    %eax,-0x64(%rbp)
   1147e:	8b 85 7c ff ff ff    	mov    -0x84(%rbp),%eax
   11484:	48 8d 14 c5 00 00 00 00 	lea    0x0(,%rax,8),%rdx
   1148c:	48 8d 05 2d 60 04 00 	lea    0x4602d(%rip),%rax        # 574c0 <states>
   11493:	48 8b 04 02          	mov    (%rdx,%rax,1),%rax
   11497:	8b 55 9c             	mov    -0x64(%rbp),%edx
   1149a:	89 50 18             	mov    %edx,0x18(%rax)
   1149d:	48 8b 45 a8          	mov    -0x58(%rbp),%rax
   114a1:	8b 50 10             	mov    0x10(%rax),%edx
   114a4:	8b 85 7c ff ff ff    	mov    -0x84(%rbp),%eax
   114aa:	48 8d 0c c5 00 00 00 00 	lea    0x0(,%rax,8),%rcx
   114b2:	48 8d 05 07 60 04 00 	lea    0x46007(%rip),%rax        # 574c0 <states>
   114b9:	48 8b 0c 01          	mov    (%rcx,%rax,1),%rcx
   114bd:	48 8b b5 70 ff ff ff 	mov    -0x90(%rbp),%rsi
   114c4:	8b 85 7c ff ff ff    	mov    -0x84(%rbp),%eax
   114ca:	66 48 0f 6e c6       	movq   %rsi,%xmm0
   114cf:	48 89 ce             	mov    %rcx,%rsi
   114d2:	89 c7                	mov    %eax,%edi
   114d4:	e8 02 07 00 00       	call   11bdb <deallocation>
   114d9:	e9 f1 03 00 00       	jmp    118cf <ProcessEvent+0x1060>
   114de:	eb 0f                	jmp    114ef <ProcessEvent+0xc80>
   114e0:	fa                   	cli
   114e1:	90                   	nop
   114e2:	90                   	nop
   114e3:	90                   	nop
   114e4:	90                   	nop
   114e5:	fa                   	cli
   114e6:	90                   	nop
   114e7:	90                   	nop
   114e8:	90                   	nop
   114e9:	90                   	nop
   114ea:	fa                   	cli
   114eb:	90                   	nop
   114ec:	90                   	nop
   114ed:	90                   	nop
   114ee:	90                   	nop
   114ef:	eb 0f                	jmp    11500 <ProcessEvent+0xc91>
   114f1:	fa                   	cli
   114f2:	90                   	nop
   114f3:	90                   	nop
   114f4:	90                   	nop
   114f5:	90                   	nop
   114f6:	fa                   	cli
   114f7:	90                   	nop
   114f8:	90                   	nop
   114f9:	90                   	nop
   114fa:	90                   	nop
   114fb:	fa                   	cli
   114fc:	90                   	nop
   114fd:	90                   	nop
   114fe:	90                   	nop
   114ff:	90                   	nop
   11500:	8b 85 7c ff ff ff    	mov    -0x84(%rbp),%eax
   11506:	48 8d 14 c5 00 00 00 00 	lea    0x0(,%rax,8),%rdx
   1150e:	48 8d 05 ab 5f 04 00 	lea    0x45fab(%rip),%rax        # 574c0 <states>
   11515:	48 8b 04 02          	mov    (%rdx,%rax,1),%rax
   11519:	8b 40 10             	mov    0x10(%rax),%eax
   1151c:	83 c0 01             	add    $0x1,%eax
   1151f:	89 45 9c             	mov    %eax,-0x64(%rbp)
   11522:	8b 85 7c ff ff ff    	mov    -0x84(%rbp),%eax
   11528:	48 8d 14 c5 00 00 00 00 	lea    0x0(,%rax,8),%rdx
   11530:	48 8d 05 89 5f 04 00 	lea    0x45f89(%rip),%rax        # 574c0 <states>
   11537:	48 8b 04 02          	mov    (%rdx,%rax,1),%rax
   1153b:	8b 55 9c             	mov    -0x64(%rbp),%edx
   1153e:	89 50 10             	mov    %edx,0x10(%rax)
   11541:	eb 0f                	jmp    11552 <ProcessEvent+0xce3>
   11543:	fa                   	cli
   11544:	90                   	nop
   11545:	90                   	nop
   11546:	90                   	nop
   11547:	90                   	nop
   11548:	fa                   	cli
   11549:	90                   	nop
   1154a:	90                   	nop
   1154b:	90                   	nop
   1154c:	90                   	nop
   1154d:	fa                   	cli
   1154e:	90                   	nop
   1154f:	90                   	nop
   11550:	90                   	nop
   11551:	90                   	nop
   11552:	8b 85 7c ff ff ff    	mov    -0x84(%rbp),%eax
   11558:	48 8d 14 c5 00 00 00 00 	lea    0x0(,%rax,8),%rdx
   11560:	48 8d 05 59 5f 04 00 	lea    0x45f59(%rip),%rax        # 574c0 <states>
   11567:	48 8b 04 02          	mov    (%rdx,%rax,1),%rax
   1156b:	8b 40 24             	mov    0x24(%rax),%eax
   1156e:	83 c0 01             	add    $0x1,%eax
   11571:	89 45 9c             	mov    %eax,-0x64(%rbp)
   11574:	8b 85 7c ff ff ff    	mov    -0x84(%rbp),%eax
   1157a:	48 8d 14 c5 00 00 00 00 	lea    0x0(,%rax,8),%rdx
   11582:	48 8d 05 37 5f 04 00 	lea    0x45f37(%rip),%rax        # 574c0 <states>
   11589:	48 8b 04 02          	mov    (%rdx,%rax,1),%rax
   1158d:	8b 55 9c             	mov    -0x64(%rbp),%edx
   11590:	89 50 24             	mov    %edx,0x24(%rax)
   11593:	48 8b 45 a8          	mov    -0x58(%rbp),%rax
   11597:	8b 50 10             	mov    0x10(%rax),%edx
   1159a:	8b 85 7c ff ff ff    	mov    -0x84(%rbp),%eax
   115a0:	48 8d 0c c5 00 00 00 00 	lea    0x0(,%rax,8),%rcx
   115a8:	48 8d 05 11 5f 04 00 	lea    0x45f11(%rip),%rax        # 574c0 <states>
   115af:	48 8b 0c 01          	mov    (%rcx,%rax,1),%rcx
   115b3:	48 8b b5 70 ff ff ff 	mov    -0x90(%rbp),%rsi
   115ba:	8b 85 7c ff ff ff    	mov    -0x84(%rbp),%eax
   115c0:	66 48 0f 6e c6       	movq   %rsi,%xmm0
   115c5:	48 89 ce             	mov    %rcx,%rsi
   115c8:	89 c7                	mov    %eax,%edi
   115ca:	e8 0c 06 00 00       	call   11bdb <deallocation>
   115cf:	e9 fb 02 00 00       	jmp    118cf <ProcessEvent+0x1060>
   115d4:	eb 0f                	jmp    115e5 <ProcessEvent+0xd76>
   115d6:	fa                   	cli
   115d7:	90                   	nop
   115d8:	90                   	nop
   115d9:	90                   	nop
   115da:	90                   	nop
   115db:	fa                   	cli
   115dc:	90                   	nop
   115dd:	90                   	nop
   115de:	90                   	nop
   115df:	90                   	nop
   115e0:	fa                   	cli
   115e1:	90                   	nop
   115e2:	90                   	nop
   115e3:	90                   	nop
   115e4:	90                   	nop
   115e5:	8b 85 7c ff ff ff    	mov    -0x84(%rbp),%eax
   115eb:	48 8d 14 c5 00 00 00 00 	lea    0x0(,%rax,8),%rdx
   115f3:	48 8d 05 c6 5e 04 00 	lea    0x45ec6(%rip),%rax        # 574c0 <states>
   115fa:	48 8b 04 02          	mov    (%rdx,%rax,1),%rax
   115fe:	8b 40 28             	mov    0x28(%rax),%eax
   11601:	83 c0 01             	add    $0x1,%eax
   11604:	89 45 9c             	mov    %eax,-0x64(%rbp)
   11607:	8b 85 7c ff ff ff    	mov    -0x84(%rbp),%eax
   1160d:	48 8d 14 c5 00 00 00 00 	lea    0x0(,%rax,8),%rdx
   11615:	48 8d 05 a4 5e 04 00 	lea    0x45ea4(%rip),%rax        # 574c0 <states>
   1161c:	48 8b 04 02          	mov    (%rdx,%rax,1),%rax
   11620:	8b 55 9c             	mov    -0x64(%rbp),%edx
   11623:	89 50 28             	mov    %edx,0x28(%rax)
   11626:	eb 0f                	jmp    11637 <ProcessEvent+0xdc8>
   11628:	fa                   	cli
   11629:	90                   	nop
   1162a:	90                   	nop
   1162b:	90                   	nop
   1162c:	90                   	nop
   1162d:	fa                   	cli
   1162e:	90                   	nop
   1162f:	90                   	nop
   11630:	90                   	nop
   11631:	90                   	nop
   11632:	fa                   	cli
   11633:	90                   	nop
   11634:	90                   	nop
   11635:	90                   	nop
   11636:	90                   	nop
   11637:	8b 85 7c ff ff ff    	mov    -0x84(%rbp),%eax
   1163d:	48 8d 14 c5 00 00 00 00 	lea    0x0(,%rax,8),%rdx
   11645:	48 8d 05 74 5e 04 00 	lea    0x45e74(%rip),%rax        # 574c0 <states>
   1164c:	48 8b 04 02          	mov    (%rdx,%rax,1),%rax
   11650:	8b 40 14             	mov    0x14(%rax),%eax
   11653:	83 c0 01             	add    $0x1,%eax
   11656:	89 45 9c             	mov    %eax,-0x64(%rbp)
   11659:	8b 85 7c ff ff ff    	mov    -0x84(%rbp),%eax
   1165f:	48 8d 14 c5 00 00 00 00 	lea    0x0(,%rax,8),%rdx
   11667:	48 8d 05 52 5e 04 00 	lea    0x45e52(%rip),%rax        # 574c0 <states>
   1166e:	48 8b 04 02          	mov    (%rdx,%rax,1),%rax
   11672:	8b 55 9c             	mov    -0x64(%rbp),%edx
   11675:	89 50 14             	mov    %edx,0x14(%rax)
   11678:	8b 85 7c ff ff ff    	mov    -0x84(%rbp),%eax
   1167e:	48 8d 14 c5 00 00 00 00 	lea    0x0(,%rax,8),%rdx
   11686:	48 8d 05 33 5e 04 00 	lea    0x45e33(%rip),%rax        # 574c0 <states>
   1168d:	48 8b 04 02          	mov    (%rdx,%rax,1),%rax
   11691:	8b 40 10             	mov    0x10(%rax),%eax
   11694:	85 c0                	test   %eax,%eax
   11696:	75 57                	jne    116ef <ProcessEvent+0xe80>
   11698:	eb 0f                	jmp    116a9 <ProcessEvent+0xe3a>
   1169a:	fa                   	cli
   1169b:	90                   	nop
   1169c:	90                   	nop
   1169d:	90                   	nop
   1169e:	90                   	nop
   1169f:	fa                   	cli
   116a0:	90                   	nop
   116a1:	90                   	nop
   116a2:	90                   	nop
   116a3:	90                   	nop
   116a4:	fa                   	cli
   116a5:	90                   	nop
   116a6:	90                   	nop
   116a7:	90                   	nop
   116a8:	90                   	nop
   116a9:	8b 85 7c ff ff ff    	mov    -0x84(%rbp),%eax
   116af:	48 8d 14 c5 00 00 00 00 	lea    0x0(,%rax,8),%rdx
   116b7:	48 8d 05 02 5e 04 00 	lea    0x45e02(%rip),%rax        # 574c0 <states>
   116be:	48 8b 04 02          	mov    (%rdx,%rax,1),%rax
   116c2:	8b 40 20             	mov    0x20(%rax),%eax
   116c5:	83 c0 01             	add    $0x1,%eax
   116c8:	89 45 9c             	mov    %eax,-0x64(%rbp)
   116cb:	8b 85 7c ff ff ff    	mov    -0x84(%rbp),%eax
   116d1:	48 8d 14 c5 00 00 00 00 	lea    0x0(,%rax,8),%rdx
   116d9:	48 8d 05 e0 5d 04 00 	lea    0x45de0(%rip),%rax        # 574c0 <states>
   116e0:	48 8b 04 02          	mov    (%rdx,%rax,1),%rax
   116e4:	8b 55 9c             	mov    -0x64(%rbp),%edx
   116e7:	89 50 20             	mov    %edx,0x20(%rax)
   116ea:	e9 e0 01 00 00       	jmp    118cf <ProcessEvent+0x1060>
   116ef:	eb 0f                	jmp    11700 <ProcessEvent+0xe91>
   116f1:	fa                   	cli
   116f2:	90                   	nop
   116f3:	90                   	nop
   116f4:	90                   	nop
   116f5:	90                   	nop
   116f6:	fa                   	cli
   116f7:	90                   	nop
   116f8:	90                   	nop
   116f9:	90                   	nop
   116fa:	90                   	nop
   116fb:	fa                   	cli
   116fc:	90                   	nop
   116fd:	90                   	nop
   116fe:	90                   	nop
   116ff:	90                   	nop
   11700:	8b 85 7c ff ff ff    	mov    -0x84(%rbp),%eax
   11706:	48 8d 14 c5 00 00 00 00 	lea    0x0(,%rax,8),%rdx
   1170e:	48 8d 05 ab 5d 04 00 	lea    0x45dab(%rip),%rax        # 574c0 <states>
   11715:	48 8b 04 02          	mov    (%rdx,%rax,1),%rax
   11719:	8b 40 10             	mov    0x10(%rax),%eax
   1171c:	83 e8 01             	sub    $0x1,%eax
   1171f:	89 45 9c             	mov    %eax,-0x64(%rbp)
   11722:	8b 85 7c ff ff ff    	mov    -0x84(%rbp),%eax
   11728:	48 8d 14 c5 00 00 00 00 	lea    0x0(,%rax,8),%rdx
   11730:	48 8d 05 89 5d 04 00 	lea    0x45d89(%rip),%rax        # 574c0 <states>
   11737:	48 8b 04 02          	mov    (%rdx,%rax,1),%rax
   1173b:	8b 55 9c             	mov    -0x64(%rbp),%edx
   1173e:	89 50 10             	mov    %edx,0x10(%rax)
   11741:	8b 85 7c ff ff ff    	mov    -0x84(%rbp),%eax
   11747:	48 8d 14 c5 00 00 00 00 	lea    0x0(,%rax,8),%rdx
   1174f:	48 8d 05 6a 5d 04 00 	lea    0x45d6a(%rip),%rax        # 574c0 <states>
   11756:	48 8b 04 02          	mov    (%rdx,%rax,1),%rax
   1175a:	48 8b 55 b0          	mov    -0x50(%rbp),%rdx
   1175e:	48 8b 4d b8          	mov    -0x48(%rbp),%rcx
   11762:	48 89 ce             	mov    %rcx,%rsi
   11765:	48 89 c7             	mov    %rax,%rdi
   11768:	e8 4f 07 00 00       	call   11ebc <allocation>
   1176d:	89 45 e0             	mov    %eax,-0x20(%rbp)
   11770:	eb 0f                	jmp    11781 <ProcessEvent+0xf12>
   11772:	fa                   	cli
   11773:	90                   	nop
   11774:	90                   	nop
   11775:	90                   	nop
   11776:	90                   	nop
   11777:	fa                   	cli
   11778:	90                   	nop
   11779:	90                   	nop
   1177a:	90                   	nop
   1177b:	90                   	nop
   1177c:	fa                   	cli
   1177d:	90                   	nop
   1177e:	90                   	nop
   1177f:	90                   	nop
   11780:	90                   	nop
   11781:	48 8b 45 a8          	mov    -0x58(%rbp),%rax
   11785:	f2 0f 10 40 18       	movsd  0x18(%rax),%xmm0
   1178a:	f2 0f 11 45 e8       	movsd  %xmm0,-0x18(%rbp)
   1178f:	eb 0f                	jmp    117a0 <ProcessEvent+0xf31>
   11791:	fa                   	cli
   11792:	90                   	nop
   11793:	90                   	nop
   11794:	90                   	nop
   11795:	90                   	nop
   11796:	fa                   	cli
   11797:	90                   	nop
   11798:	90                   	nop
   11799:	90                   	nop
   1179a:	90                   	nop
   1179b:	fa                   	cli
   1179c:	90                   	nop
   1179d:	90                   	nop
   1179e:	90                   	nop
   1179f:	90                   	nop
   117a0:	8b 85 7c ff ff ff    	mov    -0x84(%rbp),%eax
   117a6:	48 8d 14 c5 00 00 00 00 	lea    0x0(,%rax,8),%rdx
   117ae:	48 8d 05 0b 5d 04 00 	lea    0x45d0b(%rip),%rax        # 574c0 <states>
   117b5:	48 8b 04 02          	mov    (%rdx,%rax,1),%rax
   117b9:	48 8b 40 58          	mov    0x58(%rax),%rax
   117bd:	48 8b 4d b0          	mov    -0x50(%rbp),%rcx
   117c1:	48 8b 55 b8          	mov    -0x48(%rbp),%rdx
   117c5:	48 89 ce             	mov    %rcx,%rsi
   117c8:	48 89 d7             	mov    %rdx,%rdi
   117cb:	66 48 0f 6e c0       	movq   %rax,%xmm0
   117d0:	e8 bb 43 00 00       	call   15b90 <Expent>
   117d5:	f2 0f 10 8d 70 ff ff ff 	movsd  -0x90(%rbp),%xmm1
   117dd:	f2 0f 58 c1          	addsd  %xmm1,%xmm0
   117e1:	f2 0f 11 45 c0       	movsd  %xmm0,-0x40(%rbp)
   117e6:	90                   	nop
   117e7:	f2 0f 10 4d e8       	movsd  -0x18(%rbp),%xmm1
   117ec:	f2 0f 10 55 c0       	movsd  -0x40(%rbp),%xmm2
   117f1:	f2 0f 10 05 47 fa 03 00 	movsd  0x3fa47(%rip),%xmm0        # 51240 <_IO_stdin_used+0x240>
   117f9:	f2 0f 58 c2          	addsd  %xmm2,%xmm0
   117fd:	66 0f 2f c1          	comisd %xmm1,%xmm0
   11801:	72 3a                	jb     1183d <ProcessEvent+0xfce>
   11803:	eb 0f                	jmp    11814 <ProcessEvent+0xfa5>
   11805:	fa                   	cli
   11806:	90                   	nop
   11807:	90                   	nop
   11808:	90                   	nop
   11809:	90                   	nop
   1180a:	fa                   	cli
   1180b:	90                   	nop
   1180c:	90                   	nop
   1180d:	90                   	nop
   1180e:	90                   	nop
   1180f:	fa                   	cli
   11810:	90                   	nop
   11811:	90                   	nop
   11812:	90                   	nop
   11813:	90                   	nop
   11814:	48 8b 7d e8          	mov    -0x18(%rbp),%rdi
   11818:	8b 85 7c ff ff ff    	mov    -0x84(%rbp),%eax
   1181e:	48 8d 55 d0          	lea    -0x30(%rbp),%rdx
   11822:	b9 28 00 00 00       	mov    $0x28,%ecx
   11827:	be 15 00 00 00       	mov    $0x15,%esi
   1182c:	66 48 0f 6e c7       	movq   %rdi,%xmm0
   11831:	89 c7                	mov    %eax,%edi
   11833:	e8 b8 3f 00 00       	call   157f0 <ScheduleNewEvent>
   11838:	e9 92 00 00 00       	jmp    118cf <ProcessEvent+0x1060>
   1183d:	eb 0f                	jmp    1184e <ProcessEvent+0xfdf>
   1183f:	fa                   	cli
   11840:	90                   	nop
   11841:	90                   	nop
   11842:	90                   	nop
   11843:	90                   	nop
   11844:	fa                   	cli
   11845:	90                   	nop
   11846:	90                   	nop
   11847:	90                   	nop
   11848:	90                   	nop
   11849:	fa                   	cli
   1184a:	90                   	nop
   1184b:	90                   	nop
   1184c:	90                   	nop
   1184d:	90                   	nop
   1184e:	8b 85 7c ff ff ff    	mov    -0x84(%rbp),%eax
   11854:	48 8b 4d b0          	mov    -0x50(%rbp),%rcx
   11858:	48 8b 55 b8          	mov    -0x48(%rbp),%rdx
   1185c:	be e8 03 00 00       	mov    $0x3e8,%esi
   11861:	89 c7                	mov    %eax,%edi
   11863:	e8 14 0b 00 00       	call   1237c <FindReceiver>
   11868:	89 45 d0             	mov    %eax,-0x30(%rbp)
   1186b:	8b 85 7c ff ff ff    	mov    -0x84(%rbp),%eax
   11871:	48 8d 55 d0          	lea    -0x30(%rbp),%rdx
   11875:	48 8b 7d c0          	mov    -0x40(%rbp),%rdi
   11879:	b9 28 00 00 00       	mov    $0x28,%ecx
   1187e:	be 1e 00 00 00       	mov    $0x1e,%esi
   11883:	66 48 0f 6e c7       	movq   %rdi,%xmm0
   11888:	89 c7                	mov    %eax,%edi
   1188a:	e8 61 3f 00 00       	call   157f0 <ScheduleNewEvent>
   1188f:	eb 3e                	jmp    118cf <ProcessEvent+0x1060>
   11891:	eb 0f                	jmp    118a2 <ProcessEvent+0x1033>
   11893:	fa                   	cli
   11894:	90                   	nop
   11895:	90                   	nop
   11896:	90                   	nop
   11897:	90                   	nop
   11898:	fa                   	cli
   11899:	90                   	nop
   1189a:	90                   	nop
   1189b:	90                   	nop
   1189c:	90                   	nop
   1189d:	fa                   	cli
   1189e:	90                   	nop
   1189f:	90                   	nop
   118a0:	90                   	nop
   118a1:	90                   	nop
   118a2:	48 8b 05 d7 5b 04 00 	mov    0x45bd7(%rip),%rax        # 57480 <stdout@GLIBC_2.2.5>
   118a9:	8b 8d 78 ff ff ff    	mov    -0x88(%rbp),%ecx
   118af:	8b 95 7c ff ff ff    	mov    -0x84(%rbp),%edx
   118b5:	48 8d 35 2c f8 03 00 	lea    0x3f82c(%rip),%rsi        # 510e8 <_IO_stdin_used+0xe8>
   118bc:	48 89 c7             	mov    %rax,%rdi
   118bf:	b8 00 00 00 00       	mov    $0x0,%eax
   118c4:	e8 87 09 ff ff       	call   2250 <fprintf@plt>
   118c9:	e8 a2 07 ff ff       	call   2070 <abort@plt>
   118ce:	90                   	nop
   118cf:	48 8b 45 b8          	mov    -0x48(%rbp),%rax
   118d3:	8b 10                	mov    (%rax),%edx
   118d5:	48 8b 45 b8          	mov    -0x48(%rbp),%rax
   118d9:	89 10                	mov    %edx,(%rax)
   118db:	48 8b 45 b0          	mov    -0x50(%rbp),%rax
   118df:	8b 10                	mov    (%rax),%edx
   118e1:	48 8b 45 b0          	mov    -0x50(%rbp),%rax
   118e5:	89 10                	mov    %edx,(%rax)
   118e7:	90                   	nop
   118e8:	48 8b 45 f8          	mov    -0x8(%rbp),%rax
   118ec:	64 48 2b 04 25 28 00 00 00 	sub    %fs:0x28,%rax
   118f5:	74 05                	je     118fc <ProcessEvent+0x108d>
   118f7:	e8 e4 08 ff ff       	call   21e0 <__stack_chk_fail@plt>
   118fc:	c9                   	leave
   118fd:	c3                   	ret

00000000000118fe <recompute_ta>:
   118fe:	55                   	push   %rbp
   118ff:	48 89 e5             	mov    %rsp,%rbp
   11902:	f2 0f 11 45 e8       	movsd  %xmm0,-0x18(%rbp)
   11907:	f2 0f 11 4d e0       	movsd  %xmm1,-0x20(%rbp)
   1190c:	f2 0f 10 45 e0       	movsd  -0x20(%rbp),%xmm0
   11911:	f2 0f 2c c0          	cvttsd2si %xmm0,%eax
   11915:	89 45 fc             	mov    %eax,-0x4(%rbp)
   11918:	8b 45 fc             	mov    -0x4(%rbp),%eax
   1191b:	48 63 d0             	movslq %eax,%rdx
   1191e:	48 69 d2 4d de f5 6e 	imul   $0x6ef5de4d,%rdx,%rdx
   11925:	48 c1 ea 20          	shr    $0x20,%rdx
   11929:	89 d1                	mov    %edx,%ecx
   1192b:	c1 f9 12             	sar    $0x12,%ecx
   1192e:	99                   	cltd
   1192f:	29 d1                	sub    %edx,%ecx
   11931:	69 d1 80 3a 09 00    	imul   $0x93a80,%ecx,%edx
   11937:	29 d0                	sub    %edx,%eax
   11939:	89 45 fc             	mov    %eax,-0x4(%rbp)
   1193c:	81 7d fc 80 97 06 00 	cmpl   $0x69780,-0x4(%rbp)
   11943:	7e 27                	jle    1196c <recompute_ta+0x6e>
   11945:	eb 0f                	jmp    11956 <recompute_ta+0x58>
   11947:	fa                   	cli
   11948:	90                   	nop
   11949:	90                   	nop
   1194a:	90                   	nop
   1194b:	90                   	nop
   1194c:	fa                   	cli
   1194d:	90                   	nop
   1194e:	90                   	nop
   1194f:	90                   	nop
   11950:	90                   	nop
   11951:	fa                   	cli
   11952:	90                   	nop
   11953:	90                   	nop
   11954:	90                   	nop
   11955:	90                   	nop
   11956:	f2 0f 10 4d e8       	movsd  -0x18(%rbp),%xmm1
   1195b:	f2 0f 10 05 e5 f8 03 00 	movsd  0x3f8e5(%rip),%xmm0        # 51248 <_IO_stdin_used+0x248>
   11963:	f2 0f 59 c1          	mulsd  %xmm1,%xmm0
   11967:	e9 16 01 00 00       	jmp    11a82 <recompute_ta+0x184>
   1196c:	8b 45 fc             	mov    -0x4(%rbp),%eax
   1196f:	48 63 d0             	movslq %eax,%rdx
   11972:	48 69 d2 07 45 2e c2 	imul   $0xffffffffc22e4507,%rdx,%rdx
   11979:	48 c1 ea 20          	shr    $0x20,%rdx
   1197d:	01 c2                	add    %eax,%edx
   1197f:	89 d1                	mov    %edx,%ecx
   11981:	c1 f9 10             	sar    $0x10,%ecx
   11984:	99                   	cltd
   11985:	29 d1                	sub    %edx,%ecx
   11987:	69 d1 80 51 01 00    	imul   $0x15180,%ecx,%edx
   1198d:	29 d0                	sub    %edx,%eax
   1198f:	89 45 fc             	mov    %eax,-0x4(%rbp)
   11992:	81 7d fc 87 77 00 00 	cmpl   $0x7787,-0x4(%rbp)
   11999:	7f 27                	jg     119c2 <recompute_ta+0xc4>
   1199b:	eb 0f                	jmp    119ac <recompute_ta+0xae>
   1199d:	fa                   	cli
   1199e:	90                   	nop
   1199f:	90                   	nop
   119a0:	90                   	nop
   119a1:	90                   	nop
   119a2:	fa                   	cli
   119a3:	90                   	nop
   119a4:	90                   	nop
   119a5:	90                   	nop
   119a6:	90                   	nop
   119a7:	fa                   	cli
   119a8:	90                   	nop
   119a9:	90                   	nop
   119aa:	90                   	nop
   119ab:	90                   	nop
   119ac:	f2 0f 10 4d e8       	movsd  -0x18(%rbp),%xmm1
   119b1:	f2 0f 10 05 97 f8 03 00 	movsd  0x3f897(%rip),%xmm0        # 51250 <_IO_stdin_used+0x250>
   119b9:	f2 0f 59 c1          	mulsd  %xmm1,%xmm0
   119bd:	e9 c0 00 00 00       	jmp    11a82 <recompute_ta+0x184>
   119c2:	81 7d fc cf b6 00 00 	cmpl   $0xb6cf,-0x4(%rbp)
   119c9:	7f 27                	jg     119f2 <recompute_ta+0xf4>
   119cb:	eb 0f                	jmp    119dc <recompute_ta+0xde>
   119cd:	fa                   	cli
   119ce:	90                   	nop
   119cf:	90                   	nop
   119d0:	90                   	nop
   119d1:	90                   	nop
   119d2:	fa                   	cli
   119d3:	90                   	nop
   119d4:	90                   	nop
   119d5:	90                   	nop
   119d6:	90                   	nop
   119d7:	fa                   	cli
   119d8:	90                   	nop
   119d9:	90                   	nop
   119da:	90                   	nop
   119db:	90                   	nop
   119dc:	f2 0f 10 4d e8       	movsd  -0x18(%rbp),%xmm1
   119e1:	f2 0f 10 05 6f f8 03 00 	movsd  0x3f86f(%rip),%xmm0        # 51258 <_IO_stdin_used+0x258>
   119e9:	f2 0f 59 c1          	mulsd  %xmm1,%xmm0
   119ed:	e9 90 00 00 00       	jmp    11a82 <recompute_ta+0x184>
   119f2:	81 7d fc ef d2 00 00 	cmpl   $0xd2ef,-0x4(%rbp)
   119f9:	7f 24                	jg     11a1f <recompute_ta+0x121>
   119fb:	eb 0f                	jmp    11a0c <recompute_ta+0x10e>
   119fd:	fa                   	cli
   119fe:	90                   	nop
   119ff:	90                   	nop
   11a00:	90                   	nop
   11a01:	90                   	nop
   11a02:	fa                   	cli
   11a03:	90                   	nop
   11a04:	90                   	nop
   11a05:	90                   	nop
   11a06:	90                   	nop
   11a07:	fa                   	cli
   11a08:	90                   	nop
   11a09:	90                   	nop
   11a0a:	90                   	nop
   11a0b:	90                   	nop
   11a0c:	f2 0f 10 4d e8       	movsd  -0x18(%rbp),%xmm1
   11a11:	f2 0f 10 05 47 f8 03 00 	movsd  0x3f847(%rip),%xmm0        # 51260 <_IO_stdin_used+0x260>
   11a19:	f2 0f 59 c1          	mulsd  %xmm1,%xmm0
   11a1d:	eb 63                	jmp    11a82 <recompute_ta+0x184>
   11a1f:	81 7d fc 2f 0b 01 00 	cmpl   $0x10b2f,-0x4(%rbp)
   11a26:	7f 1c                	jg     11a44 <recompute_ta+0x146>
   11a28:	eb 0f                	jmp    11a39 <recompute_ta+0x13b>
   11a2a:	fa                   	cli
   11a2b:	90                   	nop
   11a2c:	90                   	nop
   11a2d:	90                   	nop
   11a2e:	90                   	nop
   11a2f:	fa                   	cli
   11a30:	90                   	nop
   11a31:	90                   	nop
   11a32:	90                   	nop
   11a33:	90                   	nop
   11a34:	fa                   	cli
   11a35:	90                   	nop
   11a36:	90                   	nop
   11a37:	90                   	nop
   11a38:	90                   	nop
   11a39:	f2 0f 10 45 e8       	movsd  -0x18(%rbp),%xmm0
   11a3e:	f2 0f 58 c0          	addsd  %xmm0,%xmm0
   11a42:	eb 3e                	jmp    11a82 <recompute_ta+0x184>
   11a44:	81 7d fc 4f 27 01 00 	cmpl   $0x1274f,-0x4(%rbp)
   11a4b:	7f 24                	jg     11a71 <recompute_ta+0x173>
   11a4d:	eb 0f                	jmp    11a5e <recompute_ta+0x160>
   11a4f:	fa                   	cli
   11a50:	90                   	nop
   11a51:	90                   	nop
   11a52:	90                   	nop
   11a53:	90                   	nop
   11a54:	fa                   	cli
   11a55:	90                   	nop
   11a56:	90                   	nop
   11a57:	90                   	nop
   11a58:	90                   	nop
   11a59:	fa                   	cli
   11a5a:	90                   	nop
   11a5b:	90                   	nop
   11a5c:	90                   	nop
   11a5d:	90                   	nop
   11a5e:	f2 0f 10 4d e8       	movsd  -0x18(%rbp),%xmm1
   11a63:	f2 0f 10 05 fd f7 03 00 	movsd  0x3f7fd(%rip),%xmm0        # 51268 <_IO_stdin_used+0x268>
   11a6b:	f2 0f 59 c1          	mulsd  %xmm1,%xmm0
   11a6f:	eb 11                	jmp    11a82 <recompute_ta+0x184>
   11a71:	f2 0f 10 4d e8       	movsd  -0x18(%rbp),%xmm1
   11a76:	f2 0f 10 05 f2 f7 03 00 	movsd  0x3f7f2(%rip),%xmm0        # 51270 <_IO_stdin_used+0x270>
   11a7e:	f2 0f 59 c1          	mulsd  %xmm1,%xmm0
   11a82:	5d                   	pop    %rbp
   11a83:	c3                   	ret

0000000000011a84 <my_pow>:
   11a84:	55                   	push   %rbp
   11a85:	48 89 e5             	mov    %rsp,%rbp
   11a88:	f2 0f 11 45 e8       	movsd  %xmm0,-0x18(%rbp)
   11a8d:	89 7d e4             	mov    %edi,-0x1c(%rbp)
   11a90:	f2 0f 10 05 e0 f7 03 00 	movsd  0x3f7e0(%rip),%xmm0        # 51278 <_IO_stdin_used+0x278>
   11a98:	f2 0f 11 45 f8       	movsd  %xmm0,-0x8(%rbp)
   11a9d:	c7 45 f4 00 00 00 00 	movl   $0x0,-0xc(%rbp)
   11aa4:	eb 24                	jmp    11aca <my_pow+0x46>
   11aa6:	eb 0f                	jmp    11ab7 <my_pow+0x33>
   11aa8:	fa                   	cli
   11aa9:	90                   	nop
   11aaa:	90                   	nop
   11aab:	90                   	nop
   11aac:	90                   	nop
   11aad:	fa                   	cli
   11aae:	90                   	nop
   11aaf:	90                   	nop
   11ab0:	90                   	nop
   11ab1:	90                   	nop
   11ab2:	fa                   	cli
   11ab3:	90                   	nop
   11ab4:	90                   	nop
   11ab5:	90                   	nop
   11ab6:	90                   	nop
   11ab7:	f2 0f 10 45 f8       	movsd  -0x8(%rbp),%xmm0
   11abc:	f2 0f 59 45 e8       	mulsd  -0x18(%rbp),%xmm0
   11ac1:	f2 0f 11 45 f8       	movsd  %xmm0,-0x8(%rbp)
   11ac6:	83 45 f4 01          	addl   $0x1,-0xc(%rbp)
   11aca:	8b 45 f4             	mov    -0xc(%rbp),%eax
   11acd:	3b 45 e4             	cmp    -0x1c(%rbp),%eax
   11ad0:	7c d4                	jl     11aa6 <my_pow+0x22>
   11ad2:	f2 0f 10 45 f8       	movsd  -0x8(%rbp),%xmm0
   11ad7:	5d                   	pop    %rbp
   11ad8:	c3                   	ret

0000000000011ad9 <generate_cross_path_gain>:
   11ad9:	55                   	push   %rbp
   11ada:	48 89 e5             	mov    %rsp,%rbp
   11add:	48 83 ec 20          	sub    $0x20,%rsp
   11ae1:	48 89 7d e8          	mov    %rdi,-0x18(%rbp)
   11ae5:	48 89 75 e0          	mov    %rsi,-0x20(%rbp)
   11ae9:	48 8b 55 e0          	mov    -0x20(%rbp),%rdx
   11aed:	48 8b 45 e8          	mov    -0x18(%rbp),%rax
   11af1:	48 89 d6             	mov    %rdx,%rsi
   11af4:	48 89 c7             	mov    %rax,%rdi
   11af7:	e8 14 40 00 00       	call   15b10 <Random>
   11afc:	f2 0f 10 0d 7c f7 03 00 	movsd  0x3f77c(%rip),%xmm1        # 51280 <_IO_stdin_used+0x280>
   11b04:	f2 0f 59 c1          	mulsd  %xmm1,%xmm0
   11b08:	f2 0f 11 45 f0       	movsd  %xmm0,-0x10(%rbp)
   11b0d:	f2 0f 10 45 f0       	movsd  -0x10(%rbp),%xmm0
   11b12:	f2 0f 10 0d 66 f7 03 00 	movsd  0x3f766(%rip),%xmm1        # 51280 <_IO_stdin_used+0x280>
   11b1a:	f2 0f 5e c1          	divsd  %xmm1,%xmm0
   11b1e:	f2 0f 2c d0          	cvttsd2si %xmm0,%edx
   11b22:	48 8b 05 57 f7 03 00 	mov    0x3f757(%rip),%rax        # 51280 <_IO_stdin_used+0x280>
   11b29:	89 d7                	mov    %edx,%edi
   11b2b:	66 48 0f 6e c0       	movq   %rax,%xmm0
   11b30:	e8 4f ff ff ff       	call   11a84 <my_pow>
   11b35:	66 48 0f 7e c0       	movq   %xmm0,%rax
   11b3a:	48 89 45 f0          	mov    %rax,-0x10(%rbp)
   11b3e:	f2 0f 10 4d f0       	movsd  -0x10(%rbp),%xmm1
   11b43:	f2 0f 10 05 3d f7 03 00 	movsd  0x3f73d(%rip),%xmm0        # 51288 <_IO_stdin_used+0x288>
   11b4b:	f2 0f 59 c1          	mulsd  %xmm1,%xmm0
   11b4f:	f2 0f 11 45 f8       	movsd  %xmm0,-0x8(%rbp)
   11b54:	f2 0f 10 45 f8       	movsd  -0x8(%rbp),%xmm0
   11b59:	c9                   	leave
   11b5a:	c3                   	ret

0000000000011b5b <generate_path_gain>:
   11b5b:	55                   	push   %rbp
   11b5c:	48 89 e5             	mov    %rsp,%rbp
   11b5f:	48 83 ec 20          	sub    $0x20,%rsp
   11b63:	48 89 7d e8          	mov    %rdi,-0x18(%rbp)
   11b67:	48 89 75 e0          	mov    %rsi,-0x20(%rbp)
   11b6b:	48 8b 55 e0          	mov    -0x20(%rbp),%rdx
   11b6f:	48 8b 45 e8          	mov    -0x18(%rbp),%rax
   11b73:	48 89 d6             	mov    %rdx,%rsi
   11b76:	48 89 c7             	mov    %rax,%rdi
   11b79:	e8 92 3f 00 00       	call   15b10 <Random>
   11b7e:	f2 0f 10 0d fa f6 03 00 	movsd  0x3f6fa(%rip),%xmm1        # 51280 <_IO_stdin_used+0x280>
   11b86:	f2 0f 59 c1          	mulsd  %xmm1,%xmm0
   11b8a:	f2 0f 11 45 f0       	movsd  %xmm0,-0x10(%rbp)
   11b8f:	f2 0f 10 45 f0       	movsd  -0x10(%rbp),%xmm0
   11b94:	f2 0f 10 0d e4 f6 03 00 	movsd  0x3f6e4(%rip),%xmm1        # 51280 <_IO_stdin_used+0x280>
   11b9c:	f2 0f 5e c1          	divsd  %xmm1,%xmm0
   11ba0:	48 8b 05 d9 f6 03 00 	mov    0x3f6d9(%rip),%rax        # 51280 <_IO_stdin_used+0x280>
   11ba7:	66 0f 28 c8          	movapd %xmm0,%xmm1
   11bab:	66 48 0f 6e c0       	movq   %rax,%xmm0
   11bb0:	e8 bb 06 ff ff       	call   2270 <pow@plt>
   11bb5:	66 48 0f 7e c0       	movq   %xmm0,%rax
   11bba:	48 89 45 f0          	mov    %rax,-0x10(%rbp)
   11bbe:	f2 0f 10 4d f0       	movsd  -0x10(%rbp),%xmm1
   11bc3:	f2 0f 10 05 c5 f6 03 00 	movsd  0x3f6c5(%rip),%xmm0        # 51290 <_IO_stdin_used+0x290>
   11bcb:	f2 0f 59 c1          	mulsd  %xmm1,%xmm0
   11bcf:	f2 0f 11 45 f8       	movsd  %xmm0,-0x8(%rbp)
   11bd4:	f2 0f 10 45 f8       	movsd  -0x8(%rbp),%xmm0
   11bd9:	c9                   	leave
   11bda:	c3                   	ret

0000000000011bdb <deallocation>:
   11bdb:	55                   	push   %rbp
   11bdc:	48 89 e5             	mov    %rsp,%rbp
   11bdf:	48 83 ec 30          	sub    $0x30,%rsp
   11be3:	89 7d ec             	mov    %edi,-0x14(%rbp)
   11be6:	48 89 75 e0          	mov    %rsi,-0x20(%rbp)
   11bea:	89 55 e8             	mov    %edx,-0x18(%rbp)
   11bed:	f2 0f 11 45 d8       	movsd  %xmm0,-0x28(%rbp)
   11bf2:	eb 0f                	jmp    11c03 <deallocation+0x28>
   11bf4:	fa                   	cli
   11bf5:	90                   	nop
   11bf6:	90                   	nop
   11bf7:	90                   	nop
   11bf8:	90                   	nop
   11bf9:	fa                   	cli
   11bfa:	90                   	nop
   11bfb:	90                   	nop
   11bfc:	90                   	nop
   11bfd:	90                   	nop
   11bfe:	fa                   	cli
   11bff:	90                   	nop
   11c00:	90                   	nop
   11c01:	90                   	nop
   11c02:	90                   	nop
   11c03:	48 8b 45 e0          	mov    -0x20(%rbp),%rax
   11c07:	48 8b 40 78          	mov    0x78(%rax),%rax
   11c0b:	48 89 45 f8          	mov    %rax,-0x8(%rbp)
   11c0f:	eb 4c                	jmp    11c5d <deallocation+0x82>
   11c11:	eb 0f                	jmp    11c22 <deallocation+0x47>
   11c13:	fa                   	cli
   11c14:	90                   	nop
   11c15:	90                   	nop
   11c16:	90                   	nop
   11c17:	90                   	nop
   11c18:	fa                   	cli
   11c19:	90                   	nop
   11c1a:	90                   	nop
   11c1b:	90                   	nop
   11c1c:	90                   	nop
   11c1d:	fa                   	cli
   11c1e:	90                   	nop
   11c1f:	90                   	nop
   11c20:	90                   	nop
   11c21:	90                   	nop
   11c22:	48 8b 45 f8          	mov    -0x8(%rbp),%rax
   11c26:	8b 00                	mov    (%rax),%eax
   11c28:	39 45 e8             	cmp    %eax,-0x18(%rbp)
   11c2b:	75 13                	jne    11c40 <deallocation+0x65>
   11c2d:	eb 0f                	jmp    11c3e <deallocation+0x63>
   11c2f:	fa                   	cli
   11c30:	90                   	nop
   11c31:	90                   	nop
   11c32:	90                   	nop
   11c33:	90                   	nop
   11c34:	fa                   	cli
   11c35:	90                   	nop
   11c36:	90                   	nop
   11c37:	90                   	nop
   11c38:	90                   	nop
   11c39:	fa                   	cli
   11c3a:	90                   	nop
   11c3b:	90                   	nop
   11c3c:	90                   	nop
   11c3d:	90                   	nop
   11c3e:	eb 24                	jmp    11c64 <deallocation+0x89>
   11c40:	eb 0f                	jmp    11c51 <deallocation+0x76>
   11c42:	fa                   	cli
   11c43:	90                   	nop
   11c44:	90                   	nop
   11c45:	90                   	nop
   11c46:	90                   	nop
   11c47:	fa                   	cli
   11c48:	90                   	nop
   11c49:	90                   	nop
   11c4a:	90                   	nop
   11c4b:	90                   	nop
   11c4c:	fa                   	cli
   11c4d:	90                   	nop
   11c4e:	90                   	nop
   11c4f:	90                   	nop
   11c50:	90                   	nop
   11c51:	48 8b 45 f8          	mov    -0x8(%rbp),%rax
   11c55:	48 8b 40 18          	mov    0x18(%rax),%rax
   11c59:	48 89 45 f8          	mov    %rax,-0x8(%rbp)
   11c5d:	48 83 7d f8 00       	cmpq   $0x0,-0x8(%rbp)
   11c62:	75 ad                	jne    11c11 <deallocation+0x36>
   11c64:	48 83 7d f8 00       	cmpq   $0x0,-0x8(%rbp)
   11c69:	0f 84 57 01 00 00    	je     11dc6 <deallocation+0x1eb>
   11c6f:	eb 0f                	jmp    11c80 <deallocation+0xa5>
   11c71:	fa                   	cli
   11c72:	90                   	nop
   11c73:	90                   	nop
   11c74:	90                   	nop
   11c75:	90                   	nop
   11c76:	fa                   	cli
   11c77:	90                   	nop
   11c78:	90                   	nop
   11c79:	90                   	nop
   11c7a:	90                   	nop
   11c7b:	fa                   	cli
   11c7c:	90                   	nop
   11c7d:	90                   	nop
   11c7e:	90                   	nop
   11c7f:	90                   	nop
   11c80:	48 8b 45 e0          	mov    -0x20(%rbp),%rax
   11c84:	48 8b 40 78          	mov    0x78(%rax),%rax
   11c88:	48 39 45 f8          	cmp    %rax,-0x8(%rbp)
   11c8c:	75 55                	jne    11ce3 <deallocation+0x108>
   11c8e:	eb 0f                	jmp    11c9f <deallocation+0xc4>
   11c90:	fa                   	cli
   11c91:	90                   	nop
   11c92:	90                   	nop
   11c93:	90                   	nop
   11c94:	90                   	nop
   11c95:	fa                   	cli
   11c96:	90                   	nop
   11c97:	90                   	nop
   11c98:	90                   	nop
   11c99:	90                   	nop
   11c9a:	fa                   	cli
   11c9b:	90                   	nop
   11c9c:	90                   	nop
   11c9d:	90                   	nop
   11c9e:	90                   	nop
   11c9f:	48 8b 45 f8          	mov    -0x8(%rbp),%rax
   11ca3:	48 8b 50 18          	mov    0x18(%rax),%rdx
   11ca7:	48 8b 45 e0          	mov    -0x20(%rbp),%rax
   11cab:	48 89 50 78          	mov    %rdx,0x78(%rax)
   11caf:	48 8b 45 e0          	mov    -0x20(%rbp),%rax
   11cb3:	48 8b 40 78          	mov    0x78(%rax),%rax
   11cb7:	48 85 c0             	test   %rax,%rax
   11cba:	0f 84 98 00 00 00    	je     11d58 <deallocation+0x17d>
   11cc0:	eb 0f                	jmp    11cd1 <deallocation+0xf6>
   11cc2:	fa                   	cli
   11cc3:	90                   	nop
   11cc4:	90                   	nop
   11cc5:	90                   	nop
   11cc6:	90                   	nop
   11cc7:	fa                   	cli
   11cc8:	90                   	nop
   11cc9:	90                   	nop
   11cca:	90                   	nop
   11ccb:	90                   	nop
   11ccc:	fa                   	cli
   11ccd:	90                   	nop
   11cce:	90                   	nop
   11ccf:	90                   	nop
   11cd0:	90                   	nop
   11cd1:	48 8b 45 e0          	mov    -0x20(%rbp),%rax
   11cd5:	48 8b 40 78          	mov    0x78(%rax),%rax
   11cd9:	48 c7 40 10 00 00 00 00 	movq   $0x0,0x10(%rax)
   11ce1:	eb 75                	jmp    11d58 <deallocation+0x17d>
   11ce3:	eb 0f                	jmp    11cf4 <deallocation+0x119>
   11ce5:	fa                   	cli
   11ce6:	90                   	nop
   11ce7:	90                   	nop
   11ce8:	90                   	nop
   11ce9:	90                   	nop
   11cea:	fa                   	cli
   11ceb:	90                   	nop
   11cec:	90                   	nop
   11ced:	90                   	nop
   11cee:	90                   	nop
   11cef:	fa                   	cli
   11cf0:	90                   	nop
   11cf1:	90                   	nop
   11cf2:	90                   	nop
   11cf3:	90                   	nop
   11cf4:	48 8b 45 f8          	mov    -0x8(%rbp),%rax
   11cf8:	48 8b 40 10          	mov    0x10(%rax),%rax
   11cfc:	48 85 c0             	test   %rax,%rax
   11cff:	74 25                	je     11d26 <deallocation+0x14b>
   11d01:	eb 0f                	jmp    11d12 <deallocation+0x137>
   11d03:	fa                   	cli
   11d04:	90                   	nop
   11d05:	90                   	nop
   11d06:	90                   	nop
   11d07:	90                   	nop
   11d08:	fa                   	cli
   11d09:	90                   	nop
   11d0a:	90                   	nop
   11d0b:	90                   	nop
   11d0c:	90                   	nop
   11d0d:	fa                   	cli
   11d0e:	90                   	nop
   11d0f:	90                   	nop
   11d10:	90                   	nop
   11d11:	90                   	nop
   11d12:	48 8b 45 f8          	mov    -0x8(%rbp),%rax
   11d16:	48 8b 40 10          	mov    0x10(%rax),%rax
   11d1a:	48 8b 55 f8          	mov    -0x8(%rbp),%rdx
   11d1e:	48 8b 52 18          	mov    0x18(%rdx),%rdx
   11d22:	48 89 50 18          	mov    %rdx,0x18(%rax)
   11d26:	48 8b 45 f8          	mov    -0x8(%rbp),%rax
   11d2a:	48 8b 40 18          	mov    0x18(%rax),%rax
   11d2e:	48 85 c0             	test   %rax,%rax
   11d31:	74 25                	je     11d58 <deallocation+0x17d>
   11d33:	eb 0f                	jmp    11d44 <deallocation+0x169>
   11d35:	fa                   	cli
   11d36:	90                   	nop
   11d37:	90                   	nop
   11d38:	90                   	nop
   11d39:	90                   	nop
   11d3a:	fa                   	cli
   11d3b:	90                   	nop
   11d3c:	90                   	nop
   11d3d:	90                   	nop
   11d3e:	90                   	nop
   11d3f:	fa                   	cli
   11d40:	90                   	nop
   11d41:	90                   	nop
   11d42:	90                   	nop
   11d43:	90                   	nop
   11d44:	48 8b 45 f8          	mov    -0x8(%rbp),%rax
   11d48:	48 8b 40 18          	mov    0x18(%rax),%rax
   11d4c:	48 8b 55 f8          	mov    -0x8(%rbp),%rdx
   11d50:	48 8b 52 10          	mov    0x10(%rdx),%rdx
   11d54:	48 89 50 10          	mov    %rdx,0x10(%rax)
   11d58:	48 8b 45 e0          	mov    -0x20(%rbp),%rax
   11d5c:	48 8b 40 70          	mov    0x70(%rax),%rax
   11d60:	8b 55 e8             	mov    -0x18(%rbp),%edx
   11d63:	48 63 d2             	movslq %edx,%rdx
   11d66:	48 89 d6             	mov    %rdx,%rsi
   11d69:	48 c1 ee 05          	shr    $0x5,%rsi
   11d6d:	89 f2                	mov    %esi,%edx
   11d6f:	48 63 d2             	movslq %edx,%rdx
   11d72:	48 c1 e2 02          	shl    $0x2,%rdx
   11d76:	48 01 d0             	add    %rdx,%rax
   11d79:	8b 10                	mov    (%rax),%edx
   11d7b:	8b 45 e8             	mov    -0x18(%rbp),%eax
   11d7e:	83 e0 1f             	and    $0x1f,%eax
   11d81:	bf 01 00 00 00       	mov    $0x1,%edi
   11d86:	89 c1                	mov    %eax,%ecx
   11d88:	d3 e7                	shl    %cl,%edi
   11d8a:	89 f8                	mov    %edi,%eax
   11d8c:	f7 d0                	not    %eax
   11d8e:	89 c7                	mov    %eax,%edi
   11d90:	48 8b 45 e0          	mov    -0x20(%rbp),%rax
   11d94:	48 8b 40 70          	mov    0x70(%rax),%rax
   11d98:	89 f1                	mov    %esi,%ecx
   11d9a:	48 63 c9             	movslq %ecx,%rcx
   11d9d:	48 c1 e1 02          	shl    $0x2,%rcx
   11da1:	48 01 c8             	add    %rcx,%rax
   11da4:	21 fa                	and    %edi,%edx
   11da6:	89 10                	mov    %edx,(%rax)
   11da8:	48 8b 45 f8          	mov    -0x8(%rbp),%rax
   11dac:	48 8b 40 08          	mov    0x8(%rax),%rax
   11db0:	48 89 c7             	mov    %rax,%rdi
   11db3:	e8 78 38 00 00       	call   15630 <__wrap_free>
   11db8:	48 8b 45 f8          	mov    -0x8(%rbp),%rax
   11dbc:	48 89 c7             	mov    %rax,%rdi
   11dbf:	e8 6c 38 00 00       	call   15630 <__wrap_free>
   11dc4:	eb 3c                	jmp    11e02 <deallocation+0x227>
   11dc6:	eb 0f                	jmp    11dd7 <deallocation+0x1fc>
   11dc8:	fa                   	cli
   11dc9:	90                   	nop
   11dca:	90                   	nop
   11dcb:	90                   	nop
   11dcc:	90                   	nop
   11dcd:	fa                   	cli
   11dce:	90                   	nop
   11dcf:	90                   	nop
   11dd0:	90                   	nop
   11dd1:	90                   	nop
   11dd2:	fa                   	cli
   11dd3:	90                   	nop
   11dd4:	90                   	nop
   11dd5:	90                   	nop
   11dd6:	90                   	nop
   11dd7:	48 8b 75 d8          	mov    -0x28(%rbp),%rsi
   11ddb:	8b 4d e8             	mov    -0x18(%rbp),%ecx
   11dde:	48 8b 55 f8          	mov    -0x8(%rbp),%rdx
   11de2:	8b 45 ec             	mov    -0x14(%rbp),%eax
   11de5:	48 8d 3d 34 f3 03 00 	lea    0x3f334(%rip),%rdi        # 51120 <_IO_stdin_used+0x120>
   11dec:	66 48 0f 6e c6       	movq   %rsi,%xmm0
   11df1:	89 c6                	mov    %eax,%esi
   11df3:	b8 01 00 00 00       	mov    $0x1,%eax
   11df8:	e8 43 02 ff ff       	call   2040 <printf@plt>
   11dfd:	e8 6e 02 ff ff       	call   2070 <abort@plt>
   11e02:	c9                   	leave
   11e03:	c3                   	ret

0000000000011e04 <fading_recheck>:
   11e04:	55                   	push   %rbp
   11e05:	48 89 e5             	mov    %rsp,%rbp
   11e08:	53                   	push   %rbx
   11e09:	48 83 ec 38          	sub    $0x38,%rsp
   11e0d:	48 89 7d d8          	mov    %rdi,-0x28(%rbp)
   11e11:	48 89 75 d0          	mov    %rsi,-0x30(%rbp)
   11e15:	48 89 55 c8          	mov    %rdx,-0x38(%rbp)
   11e19:	eb 0f                	jmp    11e2a <fading_recheck+0x26>
   11e1b:	fa                   	cli
   11e1c:	90                   	nop
   11e1d:	90                   	nop
   11e1e:	90                   	nop
   11e1f:	90                   	nop
   11e20:	fa                   	cli
   11e21:	90                   	nop
   11e22:	90                   	nop
   11e23:	90                   	nop
   11e24:	90                   	nop
   11e25:	fa                   	cli
   11e26:	90                   	nop
   11e27:	90                   	nop
   11e28:	90                   	nop
   11e29:	90                   	nop
   11e2a:	48 8b 45 d8          	mov    -0x28(%rbp),%rax
   11e2e:	48 8b 40 78          	mov    0x78(%rax),%rax
   11e32:	48 89 45 e8          	mov    %rax,-0x18(%rbp)
   11e36:	eb 75                	jmp    11ead <fading_recheck+0xa9>
   11e38:	eb 0f                	jmp    11e49 <fading_recheck+0x45>
   11e3a:	fa                   	cli
   11e3b:	90                   	nop
   11e3c:	90                   	nop
   11e3d:	90                   	nop
   11e3e:	90                   	nop
   11e3f:	fa                   	cli
   11e40:	90                   	nop
   11e41:	90                   	nop
   11e42:	90                   	nop
   11e43:	90                   	nop
   11e44:	fa                   	cli
   11e45:	90                   	nop
   11e46:	90                   	nop
   11e47:	90                   	nop
   11e48:	90                   	nop
   11e49:	48 8b 45 e8          	mov    -0x18(%rbp),%rax
   11e4d:	48 8b 58 08          	mov    0x8(%rax),%rbx
   11e51:	48 8b 4d c8          	mov    -0x38(%rbp),%rcx
   11e55:	48 8b 55 d0          	mov    -0x30(%rbp),%rdx
   11e59:	48 8b 05 18 f4 03 00 	mov    0x3f418(%rip),%rax        # 51278 <_IO_stdin_used+0x278>
   11e60:	48 89 ce             	mov    %rcx,%rsi
   11e63:	48 89 d7             	mov    %rdx,%rdi
   11e66:	66 48 0f 6e c0       	movq   %rax,%xmm0
   11e6b:	e8 20 3d 00 00       	call   15b90 <Expent>
   11e70:	66 48 0f 7e c0       	movq   %xmm0,%rax
   11e75:	48 89 03             	mov    %rax,(%rbx)
   11e78:	48 8b 45 e8          	mov    -0x18(%rbp),%rax
   11e7c:	48 8b 50 08          	mov    0x8(%rax),%rdx
   11e80:	48 8b 45 e8          	mov    -0x18(%rbp),%rax
   11e84:	48 8b 40 08          	mov    0x8(%rax),%rax
   11e88:	f2 0f 10 02          	movsd  (%rdx),%xmm0
   11e8c:	f2 0f 11 00          	movsd  %xmm0,(%rax)
   11e90:	eb 0f                	jmp    11ea1 <fading_recheck+0x9d>
   11e92:	fa                   	cli
   11e93:	90                   	nop
   11e94:	90                   	nop
   11e95:	90                   	nop
   11e96:	90                   	nop
   11e97:	fa                   	cli
   11e98:	90                   	nop
   11e99:	90                   	nop
   11e9a:	90                   	nop
   11e9b:	90                   	nop
   11e9c:	fa                   	cli
   11e9d:	90                   	nop
   11e9e:	90                   	nop
   11e9f:	90                   	nop
   11ea0:	90                   	nop
   11ea1:	48 8b 45 e8          	mov    -0x18(%rbp),%rax
   11ea5:	48 8b 40 18          	mov    0x18(%rax),%rax
   11ea9:	48 89 45 e8          	mov    %rax,-0x18(%rbp)
   11ead:	48 83 7d e8 00       	cmpq   $0x0,-0x18(%rbp)
   11eb2:	75 84                	jne    11e38 <fading_recheck+0x34>
   11eb4:	90                   	nop
   11eb5:	90                   	nop
   11eb6:	48 8b 5d f8          	mov    -0x8(%rbp),%rbx
   11eba:	c9                   	leave
   11ebb:	c3                   	ret

0000000000011ebc <allocation>:
   11ebc:	55                   	push   %rbp
   11ebd:	48 89 e5             	mov    %rsp,%rbp
   11ec0:	53                   	push   %rbx
   11ec1:	48 83 ec 48          	sub    $0x48,%rsp
   11ec5:	48 89 7d c8          	mov    %rdi,-0x38(%rbp)
   11ec9:	48 89 75 c0          	mov    %rsi,-0x40(%rbp)
   11ecd:	48 89 55 b8          	mov    %rdx,-0x48(%rbp)
   11ed1:	c7 45 d4 ff ff ff ff 	movl   $0xffffffff,-0x2c(%rbp)
   11ed8:	c7 45 d0 00 00 00 00 	movl   $0x0,-0x30(%rbp)
   11edf:	eb 63                	jmp    11f44 <allocation+0x88>
   11ee1:	eb 0f                	jmp    11ef2 <allocation+0x36>
   11ee3:	fa                   	cli
   11ee4:	90                   	nop
   11ee5:	90                   	nop
   11ee6:	90                   	nop
   11ee7:	90                   	nop
   11ee8:	fa                   	cli
   11ee9:	90                   	nop
   11eea:	90                   	nop
   11eeb:	90                   	nop
   11eec:	90                   	nop
   11eed:	fa                   	cli
   11eee:	90                   	nop
   11eef:	90                   	nop
   11ef0:	90                   	nop
   11ef1:	90                   	nop
   11ef2:	48 8b 45 c8          	mov    -0x38(%rbp),%rax
   11ef6:	48 8b 40 70          	mov    0x70(%rax),%rax
   11efa:	8b 55 d0             	mov    -0x30(%rbp),%edx
   11efd:	48 63 d2             	movslq %edx,%rdx
   11f00:	48 c1 ea 05          	shr    $0x5,%rdx
   11f04:	48 63 d2             	movslq %edx,%rdx
   11f07:	48 c1 e2 02          	shl    $0x2,%rdx
   11f0b:	48 01 d0             	add    %rdx,%rax
   11f0e:	8b 00                	mov    (%rax),%eax
   11f10:	8b 55 d0             	mov    -0x30(%rbp),%edx
   11f13:	83 e2 1f             	and    $0x1f,%edx
   11f16:	be 01 00 00 00       	mov    $0x1,%esi
   11f1b:	89 d1                	mov    %edx,%ecx
   11f1d:	d3 e6                	shl    %cl,%esi
   11f1f:	89 f2                	mov    %esi,%edx
   11f21:	21 d0                	and    %edx,%eax
   11f23:	85 c0                	test   %eax,%eax
   11f25:	75 19                	jne    11f40 <allocation+0x84>
   11f27:	eb 0f                	jmp    11f38 <allocation+0x7c>
   11f29:	fa                   	cli
   11f2a:	90                   	nop
   11f2b:	90                   	nop
   11f2c:	90                   	nop
   11f2d:	90                   	nop
   11f2e:	fa                   	cli
   11f2f:	90                   	nop
   11f30:	90                   	nop
   11f31:	90                   	nop
   11f32:	90                   	nop
   11f33:	fa                   	cli
   11f34:	90                   	nop
   11f35:	90                   	nop
   11f36:	90                   	nop
   11f37:	90                   	nop
   11f38:	8b 45 d0             	mov    -0x30(%rbp),%eax
   11f3b:	89 45 d4             	mov    %eax,-0x2c(%rbp)
   11f3e:	eb 10                	jmp    11f50 <allocation+0x94>
   11f40:	83 45 d0 01          	addl   $0x1,-0x30(%rbp)
   11f44:	48 8b 45 c8          	mov    -0x38(%rbp),%rax
   11f48:	8b 40 60             	mov    0x60(%rax),%eax
   11f4b:	39 45 d0             	cmp    %eax,-0x30(%rbp)
   11f4e:	7c 91                	jl     11ee1 <allocation+0x25>
   11f50:	83 7d d4 ff          	cmpl   $0xffffffff,-0x2c(%rbp)
   11f54:	0f 84 a0 03 00 00    	je     122fa <allocation+0x43e>
   11f5a:	eb 0f                	jmp    11f6b <allocation+0xaf>
   11f5c:	fa                   	cli
   11f5d:	90                   	nop
   11f5e:	90                   	nop
   11f5f:	90                   	nop
   11f60:	90                   	nop
   11f61:	fa                   	cli
   11f62:	90                   	nop
   11f63:	90                   	nop
   11f64:	90                   	nop
   11f65:	90                   	nop
   11f66:	fa                   	cli
   11f67:	90                   	nop
   11f68:	90                   	nop
   11f69:	90                   	nop
   11f6a:	90                   	nop
   11f6b:	48 8b 45 c8          	mov    -0x38(%rbp),%rax
   11f6f:	48 8b 40 70          	mov    0x70(%rax),%rax
   11f73:	8b 55 d4             	mov    -0x2c(%rbp),%edx
   11f76:	48 63 d2             	movslq %edx,%rdx
   11f79:	48 89 d6             	mov    %rdx,%rsi
   11f7c:	48 c1 ee 05          	shr    $0x5,%rsi
   11f80:	89 f2                	mov    %esi,%edx
   11f82:	48 63 d2             	movslq %edx,%rdx
   11f85:	48 c1 e2 02          	shl    $0x2,%rdx
   11f89:	48 01 d0             	add    %rdx,%rax
   11f8c:	8b 10                	mov    (%rax),%edx
   11f8e:	8b 45 d4             	mov    -0x2c(%rbp),%eax
   11f91:	83 e0 1f             	and    $0x1f,%eax
   11f94:	bf 01 00 00 00       	mov    $0x1,%edi
   11f99:	89 c1                	mov    %eax,%ecx
   11f9b:	d3 e7                	shl    %cl,%edi
   11f9d:	89 f8                	mov    %edi,%eax
   11f9f:	89 c7                	mov    %eax,%edi
   11fa1:	48 8b 45 c8          	mov    -0x38(%rbp),%rax
   11fa5:	48 8b 40 70          	mov    0x70(%rax),%rax
   11fa9:	89 f1                	mov    %esi,%ecx
   11fab:	48 63 c9             	movslq %ecx,%rcx
   11fae:	48 c1 e1 02          	shl    $0x2,%rcx
   11fb2:	48 01 c8             	add    %rcx,%rax
   11fb5:	09 fa                	or     %edi,%edx
   11fb7:	89 10                	mov    %edx,(%rax)
   11fb9:	eb 0f                	jmp    11fca <allocation+0x10e>
   11fbb:	fa                   	cli
   11fbc:	90                   	nop
   11fbd:	90                   	nop
   11fbe:	90                   	nop
   11fbf:	90                   	nop
   11fc0:	fa                   	cli
   11fc1:	90                   	nop
   11fc2:	90                   	nop
   11fc3:	90                   	nop
   11fc4:	90                   	nop
   11fc5:	fa                   	cli
   11fc6:	90                   	nop
   11fc7:	90                   	nop
   11fc8:	90                   	nop
   11fc9:	90                   	nop
   11fca:	bf 20 00 00 00       	mov    $0x20,%edi
   11fcf:	e8 8c 34 00 00       	call   15460 <__wrap_malloc>
   11fd4:	48 89 45 e8          	mov    %rax,-0x18(%rbp)
   11fd8:	48 83 7d e8 00       	cmpq   $0x0,-0x18(%rbp)
   11fdd:	75 2a                	jne    12009 <allocation+0x14d>
   11fdf:	eb 0f                	jmp    11ff0 <allocation+0x134>
   11fe1:	fa                   	cli
   11fe2:	90                   	nop
   11fe3:	90                   	nop
   11fe4:	90                   	nop
   11fe5:	90                   	nop
   11fe6:	fa                   	cli
   11fe7:	90                   	nop
   11fe8:	90                   	nop
   11fe9:	90                   	nop
   11fea:	90                   	nop
   11feb:	fa                   	cli
   11fec:	90                   	nop
   11fed:	90                   	nop
   11fee:	90                   	nop
   11fef:	90                   	nop
   11ff0:	48 8d 05 69 f1 03 00 	lea    0x3f169(%rip),%rax        # 51160 <_IO_stdin_used+0x160>
   11ff7:	48 89 c7             	mov    %rax,%rdi
   11ffa:	e8 81 00 ff ff       	call   2080 <puts@plt>
   11fff:	bf ff ff ff ff       	mov    $0xffffffff,%edi
   12004:	e8 a7 00 ff ff       	call   20b0 <exit@plt>
   12009:	48 8b 45 e8          	mov    -0x18(%rbp),%rax
   1200d:	48 c7 40 10 00 00 00 00 	movq   $0x0,0x10(%rax)
   12015:	48 8b 45 c8          	mov    -0x38(%rbp),%rax
   12019:	48 8b 50 78          	mov    0x78(%rax),%rdx
   1201d:	48 8b 45 e8          	mov    -0x18(%rbp),%rax
   12021:	48 89 50 18          	mov    %rdx,0x18(%rax)
   12025:	48 8b 45 e8          	mov    -0x18(%rbp),%rax
   12029:	8b 55 d4             	mov    -0x2c(%rbp),%edx
   1202c:	89 10                	mov    %edx,(%rax)
   1202e:	eb 0f                	jmp    1203f <allocation+0x183>
   12030:	fa                   	cli
   12031:	90                   	nop
   12032:	90                   	nop
   12033:	90                   	nop
   12034:	90                   	nop
   12035:	fa                   	cli
   12036:	90                   	nop
   12037:	90                   	nop
   12038:	90                   	nop
   12039:	90                   	nop
   1203a:	fa                   	cli
   1203b:	90                   	nop
   1203c:	90                   	nop
   1203d:	90                   	nop
   1203e:	90                   	nop
   1203f:	bf 10 00 00 00       	mov    $0x10,%edi
   12044:	e8 17 34 00 00       	call   15460 <__wrap_malloc>
   12049:	48 89 c2             	mov    %rax,%rdx
   1204c:	48 8b 45 e8          	mov    -0x18(%rbp),%rax
   12050:	48 89 50 08          	mov    %rdx,0x8(%rax)
   12054:	48 8b 45 e8          	mov    -0x18(%rbp),%rax
   12058:	48 8b 50 08          	mov    0x8(%rax),%rdx
   1205c:	48 8b 45 e8          	mov    -0x18(%rbp),%rax
   12060:	48 89 50 08          	mov    %rdx,0x8(%rax)
   12064:	48 8b 45 e8          	mov    -0x18(%rbp),%rax
   12068:	48 8b 40 08          	mov    0x8(%rax),%rax
   1206c:	48 85 c0             	test   %rax,%rax
   1206f:	75 2a                	jne    1209b <allocation+0x1df>
   12071:	eb 0f                	jmp    12082 <allocation+0x1c6>
   12073:	fa                   	cli
   12074:	90                   	nop
   12075:	90                   	nop
   12076:	90                   	nop
   12077:	90                   	nop
   12078:	fa                   	cli
   12079:	90                   	nop
   1207a:	90                   	nop
   1207b:	90                   	nop
   1207c:	90                   	nop
   1207d:	fa                   	cli
   1207e:	90                   	nop
   1207f:	90                   	nop
   12080:	90                   	nop
   12081:	90                   	nop
   12082:	48 8d 05 07 f1 03 00 	lea    0x3f107(%rip),%rax        # 51190 <_IO_stdin_used+0x190>
   12089:	48 89 c7             	mov    %rax,%rdi
   1208c:	e8 ef ff fe ff       	call   2080 <puts@plt>
   12091:	bf ff ff ff ff       	mov    $0xffffffff,%edi
   12096:	e8 15 00 ff ff       	call   20b0 <exit@plt>
   1209b:	48 8b 45 c8          	mov    -0x38(%rbp),%rax
   1209f:	48 8b 40 78          	mov    0x78(%rax),%rax
   120a3:	48 85 c0             	test   %rax,%rax
   120a6:	74 21                	je     120c9 <allocation+0x20d>
   120a8:	eb 0f                	jmp    120b9 <allocation+0x1fd>
   120aa:	fa                   	cli
   120ab:	90                   	nop
   120ac:	90                   	nop
   120ad:	90                   	nop
   120ae:	90                   	nop
   120af:	fa                   	cli
   120b0:	90                   	nop
   120b1:	90                   	nop
   120b2:	90                   	nop
   120b3:	90                   	nop
   120b4:	fa                   	cli
   120b5:	90                   	nop
   120b6:	90                   	nop
   120b7:	90                   	nop
   120b8:	90                   	nop
   120b9:	48 8b 45 c8          	mov    -0x38(%rbp),%rax
   120bd:	48 8b 40 78          	mov    0x78(%rax),%rax
   120c1:	48 8b 55 e8          	mov    -0x18(%rbp),%rdx
   120c5:	48 89 50 10          	mov    %rdx,0x10(%rax)
   120c9:	48 8b 45 c8          	mov    -0x38(%rbp),%rax
   120cd:	48 8b 55 e8          	mov    -0x18(%rbp),%rdx
   120d1:	48 89 50 78          	mov    %rdx,0x78(%rax)
   120d5:	66 0f ef c0          	pxor   %xmm0,%xmm0
   120d9:	f2 0f 11 45 d8       	movsd  %xmm0,-0x28(%rbp)
   120de:	eb 0f                	jmp    120ef <allocation+0x233>
   120e0:	fa                   	cli
   120e1:	90                   	nop
   120e2:	90                   	nop
   120e3:	90                   	nop
   120e4:	90                   	nop
   120e5:	fa                   	cli
   120e6:	90                   	nop
   120e7:	90                   	nop
   120e8:	90                   	nop
   120e9:	90                   	nop
   120ea:	fa                   	cli
   120eb:	90                   	nop
   120ec:	90                   	nop
   120ed:	90                   	nop
   120ee:	90                   	nop
   120ef:	48 8b 45 c8          	mov    -0x38(%rbp),%rax
   120f3:	48 8b 40 78          	mov    0x78(%rax),%rax
   120f7:	48 8b 40 18          	mov    0x18(%rax),%rax
   120fb:	48 89 45 e0          	mov    %rax,-0x20(%rbp)
   120ff:	eb 5f                	jmp    12160 <allocation+0x2a4>
   12101:	eb 0f                	jmp    12112 <allocation+0x256>
   12103:	fa                   	cli
   12104:	90                   	nop
   12105:	90                   	nop
   12106:	90                   	nop
   12107:	90                   	nop
   12108:	fa                   	cli
   12109:	90                   	nop
   1210a:	90                   	nop
   1210b:	90                   	nop
   1210c:	90                   	nop
   1210d:	fa                   	cli
   1210e:	90                   	nop
   1210f:	90                   	nop
   12110:	90                   	nop
   12111:	90                   	nop
   12112:	48 8b 55 b8          	mov    -0x48(%rbp),%rdx
   12116:	48 8b 45 c0          	mov    -0x40(%rbp),%rax
   1211a:	48 89 d6             	mov    %rdx,%rsi
   1211d:	48 89 c7             	mov    %rax,%rdi
   12120:	e8 b4 f9 ff ff       	call   11ad9 <generate_cross_path_gain>
   12125:	48 8b 45 e0          	mov    -0x20(%rbp),%rax
   12129:	48 8b 40 08          	mov    0x8(%rax),%rax
   1212d:	f2 0f 10 48 08       	movsd  0x8(%rax),%xmm1
   12132:	f2 0f 59 c8          	mulsd  %xmm0,%xmm1
   12136:	48 8b 45 e0          	mov    -0x20(%rbp),%rax
   1213a:	48 8b 40 08          	mov    0x8(%rax),%rax
   1213e:	f2 0f 10 00          	movsd  (%rax),%xmm0
   12142:	f2 0f 59 c1          	mulsd  %xmm1,%xmm0
   12146:	f2 0f 10 4d d8       	movsd  -0x28(%rbp),%xmm1
   1214b:	f2 0f 58 c1          	addsd  %xmm1,%xmm0
   1214f:	f2 0f 11 45 d8       	movsd  %xmm0,-0x28(%rbp)
   12154:	48 8b 45 e0          	mov    -0x20(%rbp),%rax
   12158:	48 8b 40 18          	mov    0x18(%rax),%rax
   1215c:	48 89 45 e0          	mov    %rax,-0x20(%rbp)
   12160:	48 83 7d e0 00       	cmpq   $0x0,-0x20(%rbp)
   12165:	75 9a                	jne    12101 <allocation+0x245>
   12167:	66 0f ef c0          	pxor   %xmm0,%xmm0
   1216b:	66 0f 2e 45 d8       	ucomisd -0x28(%rbp),%xmm0
   12170:	7a 36                	jp     121a8 <allocation+0x2ec>
   12172:	66 0f ef c0          	pxor   %xmm0,%xmm0
   12176:	66 0f 2e 45 d8       	ucomisd -0x28(%rbp),%xmm0
   1217b:	75 2b                	jne    121a8 <allocation+0x2ec>
   1217d:	eb 0f                	jmp    1218e <allocation+0x2d2>
   1217f:	fa                   	cli
   12180:	90                   	nop
   12181:	90                   	nop
   12182:	90                   	nop
   12183:	90                   	nop
   12184:	fa                   	cli
   12185:	90                   	nop
   12186:	90                   	nop
   12187:	90                   	nop
   12188:	90                   	nop
   12189:	fa                   	cli
   1218a:	90                   	nop
   1218b:	90                   	nop
   1218c:	90                   	nop
   1218d:	90                   	nop
   1218e:	48 8b 45 e8          	mov    -0x18(%rbp),%rax
   12192:	48 8b 40 08          	mov    0x8(%rax),%rax
   12196:	f2 0f 10 05 fa f0 03 00 	movsd  0x3f0fa(%rip),%xmm0        # 51298 <_IO_stdin_used+0x298>
   1219e:	f2 0f 11 40 08       	movsd  %xmm0,0x8(%rax)
   121a3:	e9 85 01 00 00       	jmp    1232d <allocation+0x471>
   121a8:	eb 0f                	jmp    121b9 <allocation+0x2fd>
   121aa:	fa                   	cli
   121ab:	90                   	nop
   121ac:	90                   	nop
   121ad:	90                   	nop
   121ae:	90                   	nop
   121af:	fa                   	cli
   121b0:	90                   	nop
   121b1:	90                   	nop
   121b2:	90                   	nop
   121b3:	90                   	nop
   121b4:	fa                   	cli
   121b5:	90                   	nop
   121b6:	90                   	nop
   121b7:	90                   	nop
   121b8:	90                   	nop
   121b9:	48 8b 45 e8          	mov    -0x18(%rbp),%rax
   121bd:	48 8b 58 08          	mov    0x8(%rax),%rbx
   121c1:	48 8b 4d b8          	mov    -0x48(%rbp),%rcx
   121c5:	48 8b 55 c0          	mov    -0x40(%rbp),%rdx
   121c9:	48 8b 05 a8 f0 03 00 	mov    0x3f0a8(%rip),%rax        # 51278 <_IO_stdin_used+0x278>
   121d0:	48 89 ce             	mov    %rcx,%rsi
   121d3:	48 89 d7             	mov    %rdx,%rdi
   121d6:	66 48 0f 6e c0       	movq   %rax,%xmm0
   121db:	e8 b0 39 00 00       	call   15b90 <Expent>
   121e0:	66 48 0f 7e c0       	movq   %xmm0,%rax
   121e5:	48 89 03             	mov    %rax,(%rbx)
   121e8:	48 8b 45 e8          	mov    -0x18(%rbp),%rax
   121ec:	48 8b 50 08          	mov    0x8(%rax),%rdx
   121f0:	48 8b 45 e8          	mov    -0x18(%rbp),%rax
   121f4:	48 8b 40 08          	mov    0x8(%rax),%rax
   121f8:	f2 0f 10 02          	movsd  (%rdx),%xmm0
   121fc:	f2 0f 11 00          	movsd  %xmm0,(%rax)
   12200:	eb 0f                	jmp    12211 <allocation+0x355>
   12202:	fa                   	cli
   12203:	90                   	nop
   12204:	90                   	nop
   12205:	90                   	nop
   12206:	90                   	nop
   12207:	fa                   	cli
   12208:	90                   	nop
   12209:	90                   	nop
   1220a:	90                   	nop
   1220b:	90                   	nop
   1220c:	fa                   	cli
   1220d:	90                   	nop
   1220e:	90                   	nop
   1220f:	90                   	nop
   12210:	90                   	nop
   12211:	f2 0f 10 4d d8       	movsd  -0x28(%rbp),%xmm1
   12216:	f2 0f 10 05 62 f0 03 00 	movsd  0x3f062(%rip),%xmm0        # 51280 <_IO_stdin_used+0x280>
   1221e:	f2 0f 59 c8          	mulsd  %xmm0,%xmm1
   12222:	f2 0f 11 4d b0       	movsd  %xmm1,-0x50(%rbp)
   12227:	48 8b 55 b8          	mov    -0x48(%rbp),%rdx
   1222b:	48 8b 45 c0          	mov    -0x40(%rbp),%rax
   1222f:	48 89 d6             	mov    %rdx,%rsi
   12232:	48 89 c7             	mov    %rax,%rdi
   12235:	e8 21 f9 ff ff       	call   11b5b <generate_path_gain>
   1223a:	48 8b 45 e8          	mov    -0x18(%rbp),%rax
   1223e:	48 8b 40 08          	mov    0x8(%rax),%rax
   12242:	f2 0f 10 08          	movsd  (%rax),%xmm1
   12246:	f2 0f 59 c8          	mulsd  %xmm0,%xmm1
   1224a:	48 8b 45 e8          	mov    -0x18(%rbp),%rax
   1224e:	48 8b 40 08          	mov    0x8(%rax),%rax
   12252:	f2 0f 10 45 b0       	movsd  -0x50(%rbp),%xmm0
   12257:	f2 0f 5e c1          	divsd  %xmm1,%xmm0
   1225b:	f2 0f 11 40 08       	movsd  %xmm0,0x8(%rax)
   12260:	48 8b 45 e8          	mov    -0x18(%rbp),%rax
   12264:	48 8b 50 08          	mov    0x8(%rax),%rdx
   12268:	48 8b 45 e8          	mov    -0x18(%rbp),%rax
   1226c:	48 8b 40 08          	mov    0x8(%rax),%rax
   12270:	f2 0f 10 42 08       	movsd  0x8(%rdx),%xmm0
   12275:	f2 0f 11 40 08       	movsd  %xmm0,0x8(%rax)
   1227a:	48 8b 45 e8          	mov    -0x18(%rbp),%rax
   1227e:	48 8b 40 08          	mov    0x8(%rax),%rax
   12282:	f2 0f 10 48 08       	movsd  0x8(%rax),%xmm1
   12287:	f2 0f 10 05 09 f0 03 00 	movsd  0x3f009(%rip),%xmm0        # 51298 <_IO_stdin_used+0x298>
   1228f:	66 0f 2f c1          	comisd %xmm1,%xmm0
   12293:	76 26                	jbe    122bb <allocation+0x3ff>
   12295:	eb 0f                	jmp    122a6 <allocation+0x3ea>
   12297:	fa                   	cli
   12298:	90                   	nop
   12299:	90                   	nop
   1229a:	90                   	nop
   1229b:	90                   	nop
   1229c:	fa                   	cli
   1229d:	90                   	nop
   1229e:	90                   	nop
   1229f:	90                   	nop
   122a0:	90                   	nop
   122a1:	fa                   	cli
   122a2:	90                   	nop
   122a3:	90                   	nop
   122a4:	90                   	nop
   122a5:	90                   	nop
   122a6:	48 8b 45 e8          	mov    -0x18(%rbp),%rax
   122aa:	48 8b 40 08          	mov    0x8(%rax),%rax
   122ae:	f2 0f 10 05 e2 ef 03 00 	movsd  0x3efe2(%rip),%xmm0        # 51298 <_IO_stdin_used+0x298>
   122b6:	f2 0f 11 40 08       	movsd  %xmm0,0x8(%rax)
   122bb:	48 8b 45 e8          	mov    -0x18(%rbp),%rax
   122bf:	48 8b 40 08          	mov    0x8(%rax),%rax
   122c3:	f2 0f 10 40 08       	movsd  0x8(%rax),%xmm0
   122c8:	66 0f 2f 05 d0 ef 03 00 	comisd 0x3efd0(%rip),%xmm0        # 512a0 <_IO_stdin_used+0x2a0>
   122d0:	76 5b                	jbe    1232d <allocation+0x471>
   122d2:	eb 0f                	jmp    122e3 <allocation+0x427>
   122d4:	fa                   	cli
   122d5:	90                   	nop
   122d6:	90                   	nop
   122d7:	90                   	nop
   122d8:	90                   	nop
   122d9:	fa                   	cli
   122da:	90                   	nop
   122db:	90                   	nop
   122dc:	90                   	nop
   122dd:	90                   	nop
   122de:	fa                   	cli
   122df:	90                   	nop
   122e0:	90                   	nop
   122e1:	90                   	nop
   122e2:	90                   	nop
   122e3:	48 8b 45 e8          	mov    -0x18(%rbp),%rax
   122e7:	48 8b 40 08          	mov    0x8(%rax),%rax
   122eb:	f2 0f 10 05 ad ef 03 00 	movsd  0x3efad(%rip),%xmm0        # 512a0 <_IO_stdin_used+0x2a0>
   122f3:	f2 0f 11 40 08       	movsd  %xmm0,0x8(%rax)
   122f8:	eb 33                	jmp    1232d <allocation+0x471>
   122fa:	eb 0f                	jmp    1230b <allocation+0x44f>
   122fc:	fa                   	cli
   122fd:	90                   	nop
   122fe:	90                   	nop
   122ff:	90                   	nop
   12300:	90                   	nop
   12301:	fa                   	cli
   12302:	90                   	nop
   12303:	90                   	nop
   12304:	90                   	nop
   12305:	90                   	nop
   12306:	fa                   	cli
   12307:	90                   	nop
   12308:	90                   	nop
   12309:	90                   	nop
   1230a:	90                   	nop
   1230b:	48 8b 45 c8          	mov    -0x38(%rbp),%rax
   1230f:	8b 40 10             	mov    0x10(%rax),%eax
   12312:	48 8d 15 a7 ee 03 00 	lea    0x3eea7(%rip),%rdx        # 511c0 <_IO_stdin_used+0x1c0>
   12319:	89 c6                	mov    %eax,%esi
   1231b:	48 89 d7             	mov    %rdx,%rdi
   1231e:	b8 00 00 00 00       	mov    $0x0,%eax
   12323:	e8 18 fd fe ff       	call   2040 <printf@plt>
   12328:	e8 43 fd fe ff       	call   2070 <abort@plt>
   1232d:	8b 45 d4             	mov    -0x2c(%rbp),%eax
   12330:	48 8b 5d f8          	mov    -0x8(%rbp),%rbx
   12334:	c9                   	leave
   12335:	c3                   	ret

0000000000012336 <get_seed1_ptr>:
   12336:	55                   	push   %rbp
   12337:	48 89 e5             	mov    %rsp,%rbp
   1233a:	89 7d fc             	mov    %edi,-0x4(%rbp)
   1233d:	8b 45 fc             	mov    -0x4(%rbp),%eax
   12340:	48 8d 14 c5 00 00 00 00 	lea    0x0(,%rax,8),%rdx
   12348:	48 8d 05 71 51 04 00 	lea    0x45171(%rip),%rax        # 574c0 <states>
   1234f:	48 8b 04 02          	mov    (%rdx,%rax,1),%rax
   12353:	48 83 c0 08          	add    $0x8,%rax
   12357:	5d                   	pop    %rbp
   12358:	c3                   	ret

0000000000012359 <get_seed2_ptr>:
   12359:	55                   	push   %rbp
   1235a:	48 89 e5             	mov    %rsp,%rbp
   1235d:	89 7d fc             	mov    %edi,-0x4(%rbp)
   12360:	8b 45 fc             	mov    -0x4(%rbp),%eax
   12363:	48 8d 14 c5 00 00 00 00 	lea    0x0(,%rax,8),%rdx
   1236b:	48 8d 05 4e 51 04 00 	lea    0x4514e(%rip),%rax        # 574c0 <states>
   12372:	48 8b 04 02          	mov    (%rdx,%rax,1),%rax
   12376:	48 83 c0 0c          	add    $0xc,%rax
   1237a:	5d                   	pop    %rbp
   1237b:	c3                   	ret

000000000001237c <FindReceiver>:
   1237c:	55                   	push   %rbp
   1237d:	48 89 e5             	mov    %rsp,%rbp
   12380:	48 83 ec 50          	sub    $0x50,%rsp
   12384:	89 7d cc             	mov    %edi,-0x34(%rbp)
   12387:	89 75 c8             	mov    %esi,-0x38(%rbp)
   1238a:	48 89 55 c0          	mov    %rdx,-0x40(%rbp)
   1238e:	48 89 4d b8          	mov    %rcx,-0x48(%rbp)
   12392:	8b 45 cc             	mov    -0x34(%rbp),%eax
   12395:	89 45 e8             	mov    %eax,-0x18(%rbp)
   12398:	81 7d c8 ed 03 00 00 	cmpl   $0x3ed,-0x38(%rbp)
   1239f:	0f 84 df 03 00 00    	je     12784 <FindReceiver+0x408>
   123a5:	81 7d c8 ed 03 00 00 	cmpl   $0x3ed,-0x38(%rbp)
   123ac:	0f 8f 82 04 00 00    	jg     12834 <FindReceiver+0x4b8>
   123b2:	81 7d c8 ec 03 00 00 	cmpl   $0x3ec,-0x38(%rbp)
   123b9:	0f 84 23 04 00 00    	je     127e2 <FindReceiver+0x466>
   123bf:	81 7d c8 ec 03 00 00 	cmpl   $0x3ec,-0x38(%rbp)
   123c6:	0f 8f 68 04 00 00    	jg     12834 <FindReceiver+0x4b8>
   123cc:	81 7d c8 eb 03 00 00 	cmpl   $0x3eb,-0x38(%rbp)
   123d3:	0f 84 24 04 00 00    	je     127fd <FindReceiver+0x481>
   123d9:	81 7d c8 eb 03 00 00 	cmpl   $0x3eb,-0x38(%rbp)
   123e0:	0f 8f 4e 04 00 00    	jg     12834 <FindReceiver+0x4b8>
   123e6:	81 7d c8 ea 03 00 00 	cmpl   $0x3ea,-0x38(%rbp)
   123ed:	0f 84 66 03 00 00    	je     12759 <FindReceiver+0x3dd>
   123f3:	81 7d c8 ea 03 00 00 	cmpl   $0x3ea,-0x38(%rbp)
   123fa:	0f 8f 34 04 00 00    	jg     12834 <FindReceiver+0x4b8>
   12400:	81 7d c8 e8 03 00 00 	cmpl   $0x3e8,-0x38(%rbp)
   12407:	74 12                	je     1241b <FindReceiver+0x9f>
   12409:	81 7d c8 e9 03 00 00 	cmpl   $0x3e9,-0x38(%rbp)
   12410:	0f 84 0c 02 00 00    	je     12622 <FindReceiver+0x2a6>
   12416:	e9 19 04 00 00       	jmp    12834 <FindReceiver+0x4b8>
   1241b:	c7 45 ec 20 00 00 00 	movl   $0x20,-0x14(%rbp)
   12422:	8b 45 e8             	mov    -0x18(%rbp),%eax
   12425:	ba 00 00 00 00       	mov    $0x0,%edx
   1242a:	f7 75 ec             	divl   -0x14(%rbp)
   1242d:	89 55 f0             	mov    %edx,-0x10(%rbp)
   12430:	8b 45 e8             	mov    -0x18(%rbp),%eax
   12433:	ba 00 00 00 00       	mov    $0x0,%edx
   12438:	f7 75 ec             	divl   -0x14(%rbp)
   1243b:	89 45 f4             	mov    %eax,-0xc(%rbp)
   1243e:	8b 45 ec             	mov    -0x14(%rbp),%eax
   12441:	0f af c0             	imul   %eax,%eax
   12444:	3d 00 04 00 00       	cmp    $0x400,%eax
   12449:	74 19                	je     12464 <FindReceiver+0xe8>
   1244b:	48 8d 05 56 ee 03 00 	lea    0x3ee56(%rip),%rax        # 512a8 <_IO_stdin_used+0x2a8>
   12452:	48 89 c7             	mov    %rax,%rdi
   12455:	e8 26 fc fe ff       	call   2080 <puts@plt>
   1245a:	b8 00 00 00 00       	mov    $0x0,%eax
   1245f:	e9 f2 03 00 00       	jmp    12856 <FindReceiver+0x4da>
   12464:	48 8b 55 b8          	mov    -0x48(%rbp),%rdx
   12468:	48 8b 45 c0          	mov    -0x40(%rbp),%rax
   1246c:	48 89 d6             	mov    %rdx,%rsi
   1246f:	48 89 c7             	mov    %rax,%rdi
   12472:	e8 99 36 00 00       	call   15b10 <Random>
   12477:	f2 0f 10 0d e1 ee 03 00 	movsd  0x3eee1(%rip),%xmm1        # 51360 <_IO_stdin_used+0x360>
   1247f:	f2 0f 59 c1          	mulsd  %xmm1,%xmm0
   12483:	f2 0f 2c c0          	cvttsd2si %xmm0,%eax
   12487:	89 45 dc             	mov    %eax,-0x24(%rbp)
   1248a:	c6 45 db 00          	movb   $0x0,-0x25(%rbp)
   1248e:	80 7d db 00          	cmpb   $0x0,-0x25(%rbp)
   12492:	74 2e                	je     124c2 <FindReceiver+0x146>
   12494:	8b 45 dc             	mov    -0x24(%rbp),%eax
   12497:	8d 50 01             	lea    0x1(%rax),%edx
   1249a:	48 63 c2             	movslq %edx,%rax
   1249d:	48 69 c0 ab aa aa 2a 	imul   $0x2aaaaaab,%rax,%rax
   124a4:	48 c1 e8 20          	shr    $0x20,%rax
   124a8:	89 d1                	mov    %edx,%ecx
   124aa:	c1 f9 1f             	sar    $0x1f,%ecx
   124ad:	29 c8                	sub    %ecx,%eax
   124af:	89 45 dc             	mov    %eax,-0x24(%rbp)
   124b2:	8b 4d dc             	mov    -0x24(%rbp),%ecx
   124b5:	89 c8                	mov    %ecx,%eax
   124b7:	01 c0                	add    %eax,%eax
   124b9:	01 c8                	add    %ecx,%eax
   124bb:	01 c0                	add    %eax,%eax
   124bd:	29 c2                	sub    %eax,%edx
   124bf:	89 55 dc             	mov    %edx,-0x24(%rbp)
   124c2:	83 7d dc 05          	cmpl   $0x5,-0x24(%rbp)
   124c6:	0f 84 80 00 00 00    	je     1254c <FindReceiver+0x1d0>
   124cc:	83 7d dc 05          	cmpl   $0x5,-0x24(%rbp)
   124d0:	0f 8f f7 00 00 00    	jg     125cd <FindReceiver+0x251>
   124d6:	83 7d dc 04          	cmpl   $0x4,-0x24(%rbp)
   124da:	0f 84 cb 00 00 00    	je     125ab <FindReceiver+0x22f>
   124e0:	83 7d dc 04          	cmpl   $0x4,-0x24(%rbp)
   124e4:	0f 8f e3 00 00 00    	jg     125cd <FindReceiver+0x251>
   124ea:	83 7d dc 03          	cmpl   $0x3,-0x24(%rbp)
   124ee:	0f 84 9c 00 00 00    	je     12590 <FindReceiver+0x214>
   124f4:	83 7d dc 03          	cmpl   $0x3,-0x24(%rbp)
   124f8:	0f 8f cf 00 00 00    	jg     125cd <FindReceiver+0x251>
   124fe:	83 7d dc 02          	cmpl   $0x2,-0x24(%rbp)
   12502:	74 66                	je     1256a <FindReceiver+0x1ee>
   12504:	83 7d dc 02          	cmpl   $0x2,-0x24(%rbp)
   12508:	0f 8f bf 00 00 00    	jg     125cd <FindReceiver+0x251>
   1250e:	83 7d dc 00          	cmpl   $0x0,-0x24(%rbp)
   12512:	74 0f                	je     12523 <FindReceiver+0x1a7>
   12514:	83 7d dc 01          	cmpl   $0x1,-0x24(%rbp)
   12518:	0f 84 9e 00 00 00    	je     125bc <FindReceiver+0x240>
   1251e:	e9 aa 00 00 00       	jmp    125cd <FindReceiver+0x251>
   12523:	8b 45 f4             	mov    -0xc(%rbp),%eax
   12526:	83 e0 01             	and    $0x1,%eax
   12529:	85 c0                	test   %eax,%eax
   1252b:	75 0b                	jne    12538 <FindReceiver+0x1bc>
   1252d:	8b 45 f0             	mov    -0x10(%rbp),%eax
   12530:	83 e8 01             	sub    $0x1,%eax
   12533:	89 45 e0             	mov    %eax,-0x20(%rbp)
   12536:	eb 06                	jmp    1253e <FindReceiver+0x1c2>
   12538:	8b 45 f0             	mov    -0x10(%rbp),%eax
   1253b:	89 45 e0             	mov    %eax,-0x20(%rbp)
   1253e:	8b 45 f4             	mov    -0xc(%rbp),%eax
   12541:	83 e8 01             	sub    $0x1,%eax
   12544:	89 45 e4             	mov    %eax,-0x1c(%rbp)
   12547:	e9 a4 00 00 00       	jmp    125f0 <FindReceiver+0x274>
   1254c:	8b 45 f4             	mov    -0xc(%rbp),%eax
   1254f:	83 e0 01             	and    $0x1,%eax
   12552:	89 c2                	mov    %eax,%edx
   12554:	8b 45 f0             	mov    -0x10(%rbp),%eax
   12557:	01 d0                	add    %edx,%eax
   12559:	89 45 e0             	mov    %eax,-0x20(%rbp)
   1255c:	8b 45 f4             	mov    -0xc(%rbp),%eax
   1255f:	83 e8 01             	sub    $0x1,%eax
   12562:	89 45 e4             	mov    %eax,-0x1c(%rbp)
   12565:	e9 86 00 00 00       	jmp    125f0 <FindReceiver+0x274>
   1256a:	8b 45 f4             	mov    -0xc(%rbp),%eax
   1256d:	83 e0 01             	and    $0x1,%eax
   12570:	85 c0                	test   %eax,%eax
   12572:	75 0b                	jne    1257f <FindReceiver+0x203>
   12574:	8b 45 f0             	mov    -0x10(%rbp),%eax
   12577:	83 e8 01             	sub    $0x1,%eax
   1257a:	89 45 e0             	mov    %eax,-0x20(%rbp)
   1257d:	eb 06                	jmp    12585 <FindReceiver+0x209>
   1257f:	8b 45 f0             	mov    -0x10(%rbp),%eax
   12582:	89 45 e0             	mov    %eax,-0x20(%rbp)
   12585:	8b 45 f4             	mov    -0xc(%rbp),%eax
   12588:	83 c0 01             	add    $0x1,%eax
   1258b:	89 45 e4             	mov    %eax,-0x1c(%rbp)
   1258e:	eb 60                	jmp    125f0 <FindReceiver+0x274>
   12590:	8b 45 f4             	mov    -0xc(%rbp),%eax
   12593:	83 e0 01             	and    $0x1,%eax
   12596:	89 c2                	mov    %eax,%edx
   12598:	8b 45 f0             	mov    -0x10(%rbp),%eax
   1259b:	01 d0                	add    %edx,%eax
   1259d:	89 45 e0             	mov    %eax,-0x20(%rbp)
   125a0:	8b 45 f4             	mov    -0xc(%rbp),%eax
   125a3:	83 c0 01             	add    $0x1,%eax
   125a6:	89 45 e4             	mov    %eax,-0x1c(%rbp)
   125a9:	eb 45                	jmp    125f0 <FindReceiver+0x274>
   125ab:	8b 45 f0             	mov    -0x10(%rbp),%eax
   125ae:	83 c0 01             	add    $0x1,%eax
   125b1:	89 45 e0             	mov    %eax,-0x20(%rbp)
   125b4:	8b 45 f4             	mov    -0xc(%rbp),%eax
   125b7:	89 45 e4             	mov    %eax,-0x1c(%rbp)
   125ba:	eb 34                	jmp    125f0 <FindReceiver+0x274>
   125bc:	8b 45 f0             	mov    -0x10(%rbp),%eax
   125bf:	83 e8 01             	sub    $0x1,%eax
   125c2:	89 45 e0             	mov    %eax,-0x20(%rbp)
   125c5:	8b 45 f4             	mov    -0xc(%rbp),%eax
   125c8:	89 45 e4             	mov    %eax,-0x1c(%rbp)
   125cb:	eb 23                	jmp    125f0 <FindReceiver+0x274>
   125cd:	48 8d 0d f5 ec 03 00 	lea    0x3ecf5(%rip),%rcx        # 512c9 <_IO_stdin_used+0x2c9>
   125d4:	48 8d 05 fd ec 03 00 	lea    0x3ecfd(%rip),%rax        # 512d8 <_IO_stdin_used+0x2d8>
   125db:	ba 5a 00 00 00       	mov    $0x5a,%edx
   125e0:	48 89 ce             	mov    %rcx,%rsi
   125e3:	48 89 c7             	mov    %rax,%rdi
   125e6:	b8 00 00 00 00       	mov    $0x0,%eax
   125eb:	e8 50 fa fe ff       	call   2040 <printf@plt>
   125f0:	c6 45 db 01          	movb   $0x1,-0x25(%rbp)
   125f4:	8b 45 e0             	mov    -0x20(%rbp),%eax
   125f7:	3b 45 ec             	cmp    -0x14(%rbp),%eax
   125fa:	0f 83 8e fe ff ff    	jae    1248e <FindReceiver+0x112>
   12600:	8b 45 e4             	mov    -0x1c(%rbp),%eax
   12603:	3b 45 ec             	cmp    -0x14(%rbp),%eax
   12606:	0f 83 82 fe ff ff    	jae    1248e <FindReceiver+0x112>
   1260c:	8b 45 e4             	mov    -0x1c(%rbp),%eax
   1260f:	0f af 45 ec          	imul   -0x14(%rbp),%eax
   12613:	89 c2                	mov    %eax,%edx
   12615:	8b 45 e0             	mov    -0x20(%rbp),%eax
   12618:	01 d0                	add    %edx,%eax
   1261a:	89 45 dc             	mov    %eax,-0x24(%rbp)
   1261d:	e9 31 02 00 00       	jmp    12853 <FindReceiver+0x4d7>
   12622:	c7 45 ec 20 00 00 00 	movl   $0x20,-0x14(%rbp)
   12629:	8b 45 e8             	mov    -0x18(%rbp),%eax
   1262c:	ba 00 00 00 00       	mov    $0x0,%edx
   12631:	f7 75 ec             	divl   -0x14(%rbp)
   12634:	89 55 f0             	mov    %edx,-0x10(%rbp)
   12637:	8b 45 e8             	mov    -0x18(%rbp),%eax
   1263a:	ba 00 00 00 00       	mov    $0x0,%edx
   1263f:	f7 75 ec             	divl   -0x14(%rbp)
   12642:	89 45 f4             	mov    %eax,-0xc(%rbp)
   12645:	8b 45 ec             	mov    -0x14(%rbp),%eax
   12648:	0f af c0             	imul   %eax,%eax
   1264b:	3d 00 04 00 00       	cmp    $0x400,%eax
   12650:	74 19                	je     1266b <FindReceiver+0x2ef>
   12652:	48 8d 05 b2 ec 03 00 	lea    0x3ecb2(%rip),%rax        # 5130b <_IO_stdin_used+0x30b>
   12659:	48 89 c7             	mov    %rax,%rdi
   1265c:	e8 1f fa fe ff       	call   2080 <puts@plt>
   12661:	b8 00 00 00 00       	mov    $0x0,%eax
   12666:	e9 eb 01 00 00       	jmp    12856 <FindReceiver+0x4da>
   1266b:	48 8b 55 b8          	mov    -0x48(%rbp),%rdx
   1266f:	48 8b 45 c0          	mov    -0x40(%rbp),%rax
   12673:	48 89 d6             	mov    %rdx,%rsi
   12676:	48 89 c7             	mov    %rax,%rdi
   12679:	e8 92 34 00 00       	call   15b10 <Random>
   1267e:	f2 0f 10 0d e2 ec 03 00 	movsd  0x3ece2(%rip),%xmm1        # 51368 <_IO_stdin_used+0x368>
   12686:	f2 0f 59 c1          	mulsd  %xmm1,%xmm0
   1268a:	f2 0f 2c c0          	cvttsd2si %xmm0,%eax
   1268e:	89 45 dc             	mov    %eax,-0x24(%rbp)
   12691:	83 7d dc 04          	cmpl   $0x4,-0x24(%rbp)
   12695:	75 07                	jne    1269e <FindReceiver+0x322>
   12697:	c7 45 dc 03 00 00 00 	movl   $0x3,-0x24(%rbp)
   1269e:	83 7d dc 03          	cmpl   $0x3,-0x24(%rbp)
   126a2:	74 42                	je     126e6 <FindReceiver+0x36a>
   126a4:	83 7d dc 03          	cmpl   $0x3,-0x24(%rbp)
   126a8:	7f 5e                	jg     12708 <FindReceiver+0x38c>
   126aa:	83 7d dc 02          	cmpl   $0x2,-0x24(%rbp)
   126ae:	74 25                	je     126d5 <FindReceiver+0x359>
   126b0:	83 7d dc 02          	cmpl   $0x2,-0x24(%rbp)
   126b4:	7f 52                	jg     12708 <FindReceiver+0x38c>
   126b6:	83 7d dc 00          	cmpl   $0x0,-0x24(%rbp)
   126ba:	74 08                	je     126c4 <FindReceiver+0x348>
   126bc:	83 7d dc 01          	cmpl   $0x1,-0x24(%rbp)
   126c0:	74 35                	je     126f7 <FindReceiver+0x37b>
   126c2:	eb 44                	jmp    12708 <FindReceiver+0x38c>
   126c4:	8b 45 f0             	mov    -0x10(%rbp),%eax
   126c7:	89 45 e0             	mov    %eax,-0x20(%rbp)
   126ca:	8b 45 f4             	mov    -0xc(%rbp),%eax
   126cd:	83 e8 01             	sub    $0x1,%eax
   126d0:	89 45 e4             	mov    %eax,-0x1c(%rbp)
   126d3:	eb 56                	jmp    1272b <FindReceiver+0x3af>
   126d5:	8b 45 f0             	mov    -0x10(%rbp),%eax
   126d8:	89 45 e0             	mov    %eax,-0x20(%rbp)
   126db:	8b 45 f4             	mov    -0xc(%rbp),%eax
   126de:	83 c0 01             	add    $0x1,%eax
   126e1:	89 45 e4             	mov    %eax,-0x1c(%rbp)
   126e4:	eb 45                	jmp    1272b <FindReceiver+0x3af>
   126e6:	8b 45 f0             	mov    -0x10(%rbp),%eax
   126e9:	83 c0 01             	add    $0x1,%eax
   126ec:	89 45 e0             	mov    %eax,-0x20(%rbp)
   126ef:	8b 45 f4             	mov    -0xc(%rbp),%eax
   126f2:	89 45 e4             	mov    %eax,-0x1c(%rbp)
   126f5:	eb 34                	jmp    1272b <FindReceiver+0x3af>
   126f7:	8b 45 f0             	mov    -0x10(%rbp),%eax
   126fa:	83 e8 01             	sub    $0x1,%eax
   126fd:	89 45 e0             	mov    %eax,-0x20(%rbp)
   12700:	8b 45 f4             	mov    -0xc(%rbp),%eax
   12703:	89 45 e4             	mov    %eax,-0x1c(%rbp)
   12706:	eb 23                	jmp    1272b <FindReceiver+0x3af>
   12708:	48 8d 0d ba eb 03 00 	lea    0x3ebba(%rip),%rcx        # 512c9 <_IO_stdin_used+0x2c9>
   1270f:	48 8d 05 c2 eb 03 00 	lea    0x3ebc2(%rip),%rax        # 512d8 <_IO_stdin_used+0x2d8>
   12716:	ba a2 00 00 00       	mov    $0xa2,%edx
   1271b:	48 89 ce             	mov    %rcx,%rsi
   1271e:	48 89 c7             	mov    %rax,%rdi
   12721:	b8 00 00 00 00       	mov    $0x0,%eax
   12726:	e8 15 f9 fe ff       	call   2040 <printf@plt>
   1272b:	8b 45 e0             	mov    -0x20(%rbp),%eax
   1272e:	3b 45 ec             	cmp    -0x14(%rbp),%eax
   12731:	0f 83 34 ff ff ff    	jae    1266b <FindReceiver+0x2ef>
   12737:	8b 45 e4             	mov    -0x1c(%rbp),%eax
   1273a:	3b 45 ec             	cmp    -0x14(%rbp),%eax
   1273d:	0f 83 28 ff ff ff    	jae    1266b <FindReceiver+0x2ef>
   12743:	8b 45 e4             	mov    -0x1c(%rbp),%eax
   12746:	0f af 45 ec          	imul   -0x14(%rbp),%eax
   1274a:	89 c2                	mov    %eax,%edx
   1274c:	8b 45 e0             	mov    -0x20(%rbp),%eax
   1274f:	01 d0                	add    %edx,%eax
   12751:	89 45 dc             	mov    %eax,-0x24(%rbp)
   12754:	e9 fa 00 00 00       	jmp    12853 <FindReceiver+0x4d7>
   12759:	48 8b 55 b8          	mov    -0x48(%rbp),%rdx
   1275d:	48 8b 45 c0          	mov    -0x40(%rbp),%rax
   12761:	48 89 d6             	mov    %rdx,%rsi
   12764:	48 89 c7             	mov    %rax,%rdi
   12767:	e8 a4 33 00 00       	call   15b10 <Random>
   1276c:	f2 0f 10 0d fc eb 03 00 	movsd  0x3ebfc(%rip),%xmm1        # 51370 <_IO_stdin_used+0x370>
   12774:	f2 0f 59 c1          	mulsd  %xmm1,%xmm0
   12778:	f2 0f 2c c0          	cvttsd2si %xmm0,%eax
   1277c:	89 45 dc             	mov    %eax,-0x24(%rbp)
   1277f:	e9 cf 00 00 00       	jmp    12853 <FindReceiver+0x4d7>
   12784:	48 8b 55 b8          	mov    -0x48(%rbp),%rdx
   12788:	48 8b 45 c0          	mov    -0x40(%rbp),%rax
   1278c:	48 89 d6             	mov    %rdx,%rsi
   1278f:	48 89 c7             	mov    %rax,%rdi
   12792:	e8 79 33 00 00       	call   15b10 <Random>
   12797:	66 48 0f 7e c0       	movq   %xmm0,%rax
   1279c:	48 89 45 f8          	mov    %rax,-0x8(%rbp)
   127a0:	f2 0f 10 05 d0 eb 03 00 	movsd  0x3ebd0(%rip),%xmm0        # 51378 <_IO_stdin_used+0x378>
   127a8:	66 0f 2f 45 f8       	comisd -0x8(%rbp),%xmm0
   127ad:	76 0b                	jbe    127ba <FindReceiver+0x43e>
   127af:	8b 45 e8             	mov    -0x18(%rbp),%eax
   127b2:	83 e8 01             	sub    $0x1,%eax
   127b5:	89 45 dc             	mov    %eax,-0x24(%rbp)
   127b8:	eb 09                	jmp    127c3 <FindReceiver+0x447>
   127ba:	8b 45 e8             	mov    -0x18(%rbp),%eax
   127bd:	83 c0 01             	add    $0x1,%eax
   127c0:	89 45 dc             	mov    %eax,-0x24(%rbp)
   127c3:	83 7d dc ff          	cmpl   $0xffffffff,-0x24(%rbp)
   127c7:	75 07                	jne    127d0 <FindReceiver+0x454>
   127c9:	c7 45 dc ff 03 00 00 	movl   $0x3ff,-0x24(%rbp)
   127d0:	81 7d dc 00 04 00 00 	cmpl   $0x400,-0x24(%rbp)
   127d7:	75 76                	jne    1284f <FindReceiver+0x4d3>
   127d9:	c7 45 dc 00 00 00 00 	movl   $0x0,-0x24(%rbp)
   127e0:	eb 6d                	jmp    1284f <FindReceiver+0x4d3>
   127e2:	8b 45 e8             	mov    -0x18(%rbp),%eax
   127e5:	83 c0 01             	add    $0x1,%eax
   127e8:	89 45 dc             	mov    %eax,-0x24(%rbp)
   127eb:	81 7d dc 00 04 00 00 	cmpl   $0x400,-0x24(%rbp)
   127f2:	75 5e                	jne    12852 <FindReceiver+0x4d6>
   127f4:	c7 45 dc 00 00 00 00 	movl   $0x0,-0x24(%rbp)
   127fb:	eb 55                	jmp    12852 <FindReceiver+0x4d6>
   127fd:	83 7d e8 00          	cmpl   $0x0,-0x18(%rbp)
   12801:	75 28                	jne    1282b <FindReceiver+0x4af>
   12803:	48 8b 55 b8          	mov    -0x48(%rbp),%rdx
   12807:	48 8b 45 c0          	mov    -0x40(%rbp),%rax
   1280b:	48 89 d6             	mov    %rdx,%rsi
   1280e:	48 89 c7             	mov    %rax,%rdi
   12811:	e8 fa 32 00 00       	call   15b10 <Random>
   12816:	f2 0f 10 0d 52 eb 03 00 	movsd  0x3eb52(%rip),%xmm1        # 51370 <_IO_stdin_used+0x370>
   1281e:	f2 0f 59 c1          	mulsd  %xmm1,%xmm0
   12822:	f2 0f 2c c0          	cvttsd2si %xmm0,%eax
   12826:	89 45 dc             	mov    %eax,-0x24(%rbp)
   12829:	eb 28                	jmp    12853 <FindReceiver+0x4d7>
   1282b:	c7 45 dc 00 00 00 00 	movl   $0x0,-0x24(%rbp)
   12832:	eb 1f                	jmp    12853 <FindReceiver+0x4d7>
   12834:	8b 45 c8             	mov    -0x38(%rbp),%eax
   12837:	48 8d 15 f2 ea 03 00 	lea    0x3eaf2(%rip),%rdx        # 51330 <_IO_stdin_used+0x330>
   1283e:	89 c6                	mov    %eax,%esi
   12840:	48 89 d7             	mov    %rdx,%rdi
   12843:	b8 00 00 00 00       	mov    $0x0,%eax
   12848:	e8 f3 f7 fe ff       	call   2040 <printf@plt>
   1284d:	eb 04                	jmp    12853 <FindReceiver+0x4d7>
   1284f:	90                   	nop
   12850:	eb 01                	jmp    12853 <FindReceiver+0x4d7>
   12852:	90                   	nop
   12853:	8b 45 dc             	mov    -0x24(%rbp),%eax
   12856:	c9                   	leave
   12857:	c3                   	ret
   12858:	66 2e 0f 1f 84 00 00 00 00 00 	cs nopw 0x0(%rax,%rax,1)
   12862:	66 2e 0f 1f 84 00 00 00 00 00 	cs nopw 0x0(%rax,%rax,1)
   1286c:	66 2e 0f 1f 84 00 00 00 00 00 	cs nopw 0x0(%rax,%rax,1)
   12876:	66 2e 0f 1f 84 00 00 00 00 00 	cs nopw 0x0(%rax,%rax,1)

0000000000012880 <whoami>:
   12880:	48 83 ec 18          	sub    $0x18,%rsp
   12884:	64 48 8b 04 25 28 00 00 00 	mov    %fs:0x28,%rax
   1288d:	48 89 44 24 08       	mov    %rax,0x8(%rsp)
   12892:	31 c0                	xor    %eax,%eax
   12894:	64 89 3c 25 c8 ef ff ff 	mov    %edi,%fs:0xffffffffffffefc8
   1289c:	e8 0f 37 00 00       	call   15fb0 <getcounter>
   128a1:	64 48 89 04 25 c0 ef ff ff 	mov    %rax,%fs:0xffffffffffffefc0
   128aa:	e8 41 37 00 00       	call   15ff0 <getmin>
   128af:	64 48 89 04 25 b8 ef ff ff 	mov    %rax,%fs:0xffffffffffffefb8
   128b8:	e8 73 37 00 00       	call   16030 <getmax>
   128bd:	64 48 89 04 25 b0 ef ff ff 	mov    %rax,%fs:0xffffffffffffefb0
   128c6:	e8 a5 36 00 00       	call   15f70 <get_NUMAnode>
   128cb:	64 c7 04 25 a4 ef ff ff 00 00 00 00 	movl   $0x0,%fs:0xffffffffffffefa4
   128d7:	64 89 04 25 ac ef ff ff 	mov    %eax,%fs:0xffffffffffffefac
   128df:	64 89 04 25 a8 ef ff ff 	mov    %eax,%fs:0xffffffffffffefa8
   128e7:	e8 84 37 00 00       	call   16070 <get_totNUMAnodes>
   128ec:	64 89 04 25 a0 ef ff ff 	mov    %eax,%fs:0xffffffffffffefa0
   128f4:	48 8b 44 24 08       	mov    0x8(%rsp),%rax
   128f9:	64 48 2b 04 25 28 00 00 00 	sub    %fs:0x28,%rax
   12902:	75 05                	jne    12909 <whoami+0x89>
   12904:	48 83 c4 18          	add    $0x18,%rsp
   12908:	c3                   	ret
   12909:	e8 d2 f8 fe ff       	call   21e0 <__stack_chk_fail@plt>
   1290e:	66 90                	xchg   %ax,%ax

0000000000012910 <queue_init>:
   12910:	41 57                	push   %r15
   12912:	48 8d 05 e7 31 06 00 	lea    0x631e7(%rip),%rax        # 75b00 <locks>
   12919:	41 56                	push   %r14
   1291b:	41 55                	push   %r13
   1291d:	45 31 ed             	xor    %r13d,%r13d
   12920:	41 54                	push   %r12
   12922:	45 31 e4             	xor    %r12d,%r12d
   12925:	55                   	push   %rbp
   12926:	53                   	push   %rbx
   12927:	48 83 ec 28          	sub    $0x28,%rsp
   1292b:	f2 0f 10 05 65 fa 03 00 	movsd  0x3fa65(%rip),%xmm0        # 52398 <_IO_stdin_used+0x1398>
   12933:	64 48 8b 2c 25 28 00 00 00 	mov    %fs:0x28,%rbp
   1293c:	48 89 6c 24 18       	mov    %rbp,0x18(%rsp)
   12941:	48 8d 2d c0 f1 04 00 	lea    0x4f1c0(%rip),%rbp        # 61b08 <retractable_queue+0x28>
   12948:	48 89 44 24 08       	mov    %rax,0x8(%rsp)
   1294d:	0f 1f 00             	nopl   (%rax)
   12950:	48 8d 45 d8          	lea    -0x28(%rbp),%rax
   12954:	48 89 6d f0          	mov    %rbp,-0x10(%rbp)
   12958:	4c 8b 74 24 08       	mov    0x8(%rsp),%r14
   1295d:	45 31 ff             	xor    %r15d,%r15d
   12960:	48 c7 45 f8 00 00 00 00 	movq   $0x0,-0x8(%rbp)
   12968:	48 c7 45 18 00 00 00 00 	movq   $0x0,0x18(%rbp)
   12970:	48 89 45 20          	mov    %rax,0x20(%rbp)
   12974:	48 8d 05 ad 31 d6 07 	lea    0x7d631ad(%rip),%rax        # 7d75b28 <queue+0x28>
   1297b:	f2 0f 11 45 e8       	movsd  %xmm0,-0x18(%rbp)
   12980:	4a 8d 1c 28          	lea    (%rax,%r13,1),%rbx
   12984:	f2 0f 11 45 10       	movsd  %xmm0,0x10(%rbp)
   12989:	0f 1f 80 00 00 00 00 	nopl   0x0(%rax)
   12990:	48 8d 43 d8          	lea    -0x28(%rbx),%rax
   12994:	48 89 5b f0          	mov    %rbx,-0x10(%rbx)
   12998:	31 f6                	xor    %esi,%esi
   1299a:	4c 89 f7             	mov    %r14,%rdi
   1299d:	48 c7 43 f8 00 00 00 00 	movq   $0x0,-0x8(%rbx)
   129a5:	48 c7 43 18 00 00 00 00 	movq   $0x0,0x18(%rbx)
   129ad:	48 89 43 20          	mov    %rax,0x20(%rbx)
   129b1:	f2 0f 11 43 e8       	movsd  %xmm0,-0x18(%rbx)
   129b6:	f2 0f 11 43 10       	movsd  %xmm0,0x10(%rbx)
   129bb:	e8 90 f7 fe ff       	call   2150 <pthread_spin_init@plt>
   129c0:	f2 0f 10 05 d0 f9 03 00 	movsd  0x3f9d0(%rip),%xmm0        # 52398 <_IO_stdin_used+0x1398>
   129c8:	85 c0                	test   %eax,%eax
   129ca:	75 59                	jne    12a25 <queue_init+0x115>
   129cc:	41 83 c7 01          	add    $0x1,%r15d
   129d0:	48 83 c3 50          	add    $0x50,%rbx
   129d4:	49 83 c6 40          	add    $0x40,%r14
   129d8:	41 81 ff d0 07 00 00 	cmp    $0x7d0,%r15d
   129df:	75 af                	jne    12990 <queue_init+0x80>
   129e1:	41 83 c4 01          	add    $0x1,%r12d
   129e5:	48 83 c5 50          	add    $0x50,%rbp
   129e9:	48 81 44 24 08 00 f4 01 00 	addq   $0x1f400,0x8(%rsp)
   129f2:	49 81 c5 00 71 02 00 	add    $0x27100,%r13
   129f9:	41 81 fc 00 04 00 00 	cmp    $0x400,%r12d
   12a00:	0f 85 4a ff ff ff    	jne    12950 <queue_init+0x40>
   12a06:	48 8b 44 24 18       	mov    0x18(%rsp),%rax
   12a0b:	64 48 2b 04 25 28 00 00 00 	sub    %fs:0x28,%rax
   12a14:	75 2d                	jne    12a43 <queue_init+0x133>
   12a16:	48 83 c4 28          	add    $0x28,%rsp
   12a1a:	5b                   	pop    %rbx
   12a1b:	5d                   	pop    %rbp
   12a1c:	41 5c                	pop    %r12
   12a1e:	41 5d                	pop    %r13
   12a20:	41 5e                	pop    %r14
   12a22:	41 5f                	pop    %r15
   12a24:	c3                   	ret
   12a25:	48 8d 3d 54 e9 03 00 	lea    0x3e954(%rip),%rdi        # 51380 <_IO_stdin_used+0x380>
   12a2c:	44 89 fa             	mov    %r15d,%edx
   12a2f:	44 89 e6             	mov    %r12d,%esi
   12a32:	31 c0                	xor    %eax,%eax
   12a34:	e8 07 f6 fe ff       	call   2040 <printf@plt>
   12a39:	bf 01 00 00 00       	mov    $0x1,%edi
   12a3e:	e8 6d f6 fe ff       	call   20b0 <exit@plt>
   12a43:	e8 98 f7 fe ff       	call   21e0 <__stack_chk_fail@plt>
   12a48:	0f 1f 84 00 00 00 00 00 	nopl   0x0(%rax,%rax,1)

0000000000012a50 <update_timing>:
   12a50:	48 83 ec 18          	sub    $0x18,%rsp
   12a54:	f2 0f 10 0d 44 f9 03 00 	movsd  0x3f944(%rip),%xmm1        # 523a0 <_IO_stdin_used+0x13a0>
   12a5c:	48 8d 3d 9d ab 04 00 	lea    0x4ab9d(%rip),%rdi        # 5d600 <object_identifiers_vector>
   12a63:	64 48 8b 04 25 28 00 00 00 	mov    %fs:0x28,%rax
   12a6c:	48 89 44 24 08       	mov    %rax,0x8(%rsp)
   12a71:	31 c0                	xor    %eax,%eax
   12a73:	48 83 05 85 aa 04 00 01 	addq   $0x1,0x4aa85(%rip)        # 5d500 <epochs>
   12a7b:	48 c7 05 fa af 04 00 00 00 00 00 	movq   $0x0,0x4affa(%rip)        # 5da80 <object_identifiers>
   12a86:	f2 0f 10 05 42 b0 04 00 	movsd  0x4b042(%rip),%xmm0        # 5dad0 <current_min_limit>
   12a8e:	48 c7 05 a7 af 04 00 00 00 00 00 	movq   $0x0,0x4afa7(%rip)        # 5da40 <shadow_object_identifiers>
   12a99:	48 c7 05 5c af 04 00 00 00 00 00 	movq   $0x0,0x4af5c(%rip)        # 5da00 <retractable_object_identifiers>
   12aa4:	f2 0f 58 c1          	addsd  %xmm1,%xmm0
   12aa8:	f2 0f 11 05 20 b0 04 00 	movsd  %xmm0,0x4b020(%rip)        # 5dad0 <current_min_limit>
   12ab0:	f2 0f 10 05 08 47 04 00 	movsd  0x44708(%rip),%xmm0        # 571c0 <current_max_limit>
   12ab8:	f2 0f 58 c1          	addsd  %xmm1,%xmm0
   12abc:	f2 0f 11 05 fc 46 04 00 	movsd  %xmm0,0x446fc(%rip)        # 571c0 <current_max_limit>
   12ac4:	8b 0d fe af 04 00    	mov    0x4affe(%rip),%ecx        # 5dac8 <current_index>
   12aca:	83 c1 01             	add    $0x1,%ecx
   12acd:	48 63 d1             	movslq %ecx,%rdx
   12ad0:	89 ce                	mov    %ecx,%esi
   12ad2:	48 69 d2 d3 4d 62 10 	imul   $0x10624dd3,%rdx,%rdx
   12ad9:	c1 fe 1f             	sar    $0x1f,%esi
   12adc:	48 c1 fa 27          	sar    $0x27,%rdx
   12ae0:	29 f2                	sub    %esi,%edx
   12ae2:	69 f2 d0 07 00 00    	imul   $0x7d0,%edx,%esi
   12ae8:	29 f1                	sub    %esi,%ecx
   12aea:	89 0d d8 af 04 00    	mov    %ecx,0x4afd8(%rip)        # 5dac8 <current_index>
   12af0:	b9 80 00 00 00       	mov    $0x80,%ecx
   12af5:	f3 48 ab             	rep stos %rax,(%rdi)
   12af8:	48 8b 05 c1 af 04 00 	mov    0x4afc1(%rip),%rax        # 5dac0 <pending_events>
   12aff:	48 0b 05 ba aa 04 00 	or     0x4aaba(%rip),%rax        # 5d5c0 <speculation_events>
   12b06:	75 0a                	jne    12b12 <update_timing+0xc2>
   12b08:	c7 05 b6 aa 04 00 01 00 00 00 	movl   $0x1,0x4aab6(%rip)        # 5d5c8 <end>
   12b12:	48 8b 44 24 08       	mov    0x8(%rsp),%rax
   12b17:	64 48 2b 04 25 28 00 00 00 	sub    %fs:0x28,%rax
   12b20:	75 05                	jne    12b27 <update_timing+0xd7>
   12b22:	48 83 c4 18          	add    $0x18,%rsp
   12b26:	c3                   	ret
   12b27:	e8 b4 f6 fe ff       	call   21e0 <__stack_chk_fail@plt>
   12b2c:	0f 1f 40 00          	nopl   0x0(%rax)

0000000000012b30 <queue_insert_in_epoch>:
   12b30:	41 55                	push   %r13
   12b32:	41 54                	push   %r12
   12b34:	55                   	push   %rbp
   12b35:	53                   	push   %rbx
   12b36:	48 83 ec 18          	sub    $0x18,%rsp
   12b3a:	f2 0f 10 05 66 f8 03 00 	movsd  0x3f866(%rip),%xmm0        # 523a8 <_IO_stdin_used+0x13a8>
   12b42:	4c 63 2f             	movslq (%rdi),%r13
   12b45:	64 4c 8b 24 25 28 00 00 00 	mov    %fs:0x28,%r12
   12b4e:	4c 89 64 24 08       	mov    %r12,0x8(%rsp)
   12b53:	49 89 fc             	mov    %rdi,%r12
   12b56:	f2 0f 59 47 10       	mulsd  0x10(%rdi),%xmm0
   12b5b:	49 69 ed d0 07 00 00 	imul   $0x7d0,%r13,%rbp
   12b62:	4d 69 ed 00 71 02 00 	imul   $0x27100,%r13,%r13
   12b69:	f2 0f 2c c0          	cvttsd2si %xmm0,%eax
   12b6d:	48 63 d8             	movslq %eax,%rbx
   12b70:	99                   	cltd
   12b71:	48 69 db d3 4d 62 10 	imul   $0x10624dd3,%rbx,%rbx
   12b78:	48 c1 fb 27          	sar    $0x27,%rbx
   12b7c:	29 d3                	sub    %edx,%ebx
   12b7e:	69 d3 d0 07 00 00    	imul   $0x7d0,%ebx,%edx
   12b84:	29 d0                	sub    %edx,%eax
   12b86:	48 63 d8             	movslq %eax,%rbx
   12b89:	48 8d 05 70 2f 06 00 	lea    0x62f70(%rip),%rax        # 75b00 <locks>
   12b90:	48 01 dd             	add    %rbx,%rbp
   12b93:	48 c1 e5 06          	shl    $0x6,%rbp
   12b97:	48 01 c5             	add    %rax,%rbp
   12b9a:	48 89 ef             	mov    %rbp,%rdi
   12b9d:	e8 ae f4 fe ff       	call   2050 <pthread_spin_lock@plt>
   12ba2:	48 8d 14 9b          	lea    (%rbx,%rbx,4),%rdx
   12ba6:	48 8d 0d 53 2f d6 07 	lea    0x7d62f53(%rip),%rcx        # 7d75b00 <queue>
   12bad:	48 c1 e2 04          	shl    $0x4,%rdx
   12bb1:	4a 8d 04 2a          	lea    (%rdx,%r13,1),%rax
   12bb5:	4a 8d 54 2a 28       	lea    0x28(%rdx,%r13,1),%rdx
   12bba:	48 8b 44 01 18       	mov    0x18(%rcx,%rax,1),%rax
   12bbf:	48 01 ca             	add    %rcx,%rdx
   12bc2:	48 39 d0             	cmp    %rdx,%rax
   12bc5:	74 19                	je     12be0 <queue_insert_in_epoch+0xb0>
   12bc7:	f2 41 0f 10 44 24 10 	movsd  0x10(%r12),%xmm0
   12bce:	eb 09                	jmp    12bd9 <queue_insert_in_epoch+0xa9>
   12bd0:	48 8b 40 18          	mov    0x18(%rax),%rax
   12bd4:	48 39 c2             	cmp    %rax,%rdx
   12bd7:	74 07                	je     12be0 <queue_insert_in_epoch+0xb0>
   12bd9:	66 0f 2f 40 10       	comisd 0x10(%rax),%xmm0
   12bde:	73 f0                	jae    12bd0 <queue_insert_in_epoch+0xa0>
   12be0:	48 8b 50 20          	mov    0x20(%rax),%rdx
   12be4:	66 48 0f 6e c0       	movq   %rax,%xmm0
   12be9:	48 89 ef             	mov    %rbp,%rdi
   12bec:	66 48 0f 6e ca       	movq   %rdx,%xmm1
   12bf1:	66 0f 6c c1          	punpcklqdq %xmm1,%xmm0
   12bf5:	41 0f 11 44 24 18    	movups %xmm0,0x18(%r12)
   12bfb:	4c 89 62 18          	mov    %r12,0x18(%rdx)
   12bff:	4c 89 60 20          	mov    %r12,0x20(%rax)
   12c03:	e8 88 f5 fe ff       	call   2190 <pthread_spin_unlock@plt>
   12c08:	f0 48 83 05 af ae 04 00 01 	lock addq $0x1,0x4aeaf(%rip)        # 5dac0 <pending_events>
   12c11:	48 8b 44 24 08       	mov    0x8(%rsp),%rax
   12c16:	64 48 2b 04 25 28 00 00 00 	sub    %fs:0x28,%rax
   12c1f:	75 0d                	jne    12c2e <queue_insert_in_epoch+0xfe>
   12c21:	48 83 c4 18          	add    $0x18,%rsp
   12c25:	31 c0                	xor    %eax,%eax
   12c27:	5b                   	pop    %rbx
   12c28:	5d                   	pop    %rbp
   12c29:	41 5c                	pop    %r12
   12c2b:	41 5d                	pop    %r13
   12c2d:	c3                   	ret
   12c2e:	e8 ad f5 fe ff       	call   21e0 <__stack_chk_fail@plt>
   12c33:	66 90                	xchg   %ax,%ax
   12c35:	66 66 2e 0f 1f 84 00 00 00 00 00 	data16 cs nopw 0x0(%rax,%rax,1)

0000000000012c40 <queue_insert_from_fallback>:
   12c40:	41 55                	push   %r13
   12c42:	41 54                	push   %r12
   12c44:	55                   	push   %rbp
   12c45:	53                   	push   %rbx
   12c46:	48 83 ec 18          	sub    $0x18,%rsp
   12c4a:	f2 0f 10 05 56 f7 03 00 	movsd  0x3f756(%rip),%xmm0        # 523a8 <_IO_stdin_used+0x13a8>
   12c52:	4c 63 2f             	movslq (%rdi),%r13
   12c55:	64 4c 8b 24 25 28 00 00 00 	mov    %fs:0x28,%r12
   12c5e:	4c 89 64 24 08       	mov    %r12,0x8(%rsp)
   12c63:	49 89 fc             	mov    %rdi,%r12
   12c66:	f2 0f 59 47 10       	mulsd  0x10(%rdi),%xmm0
   12c6b:	49 69 ed d0 07 00 00 	imul   $0x7d0,%r13,%rbp
   12c72:	4d 69 ed 00 71 02 00 	imul   $0x27100,%r13,%r13
   12c79:	f2 0f 2c c0          	cvttsd2si %xmm0,%eax
   12c7d:	48 63 d8             	movslq %eax,%rbx
   12c80:	99                   	cltd
   12c81:	48 69 db d3 4d 62 10 	imul   $0x10624dd3,%rbx,%rbx
   12c88:	48 c1 fb 27          	sar    $0x27,%rbx
   12c8c:	29 d3                	sub    %edx,%ebx
   12c8e:	69 d3 d0 07 00 00    	imul   $0x7d0,%ebx,%edx
   12c94:	29 d0                	sub    %edx,%eax
   12c96:	48 63 d8             	movslq %eax,%rbx
   12c99:	48 8d 05 60 2e 06 00 	lea    0x62e60(%rip),%rax        # 75b00 <locks>
   12ca0:	48 01 dd             	add    %rbx,%rbp
   12ca3:	48 c1 e5 06          	shl    $0x6,%rbp
   12ca7:	48 01 c5             	add    %rax,%rbp
   12caa:	48 89 ef             	mov    %rbp,%rdi
   12cad:	e8 9e f3 fe ff       	call   2050 <pthread_spin_lock@plt>
   12cb2:	48 8d 14 9b          	lea    (%rbx,%rbx,4),%rdx
   12cb6:	48 8d 0d 43 2e d6 07 	lea    0x7d62e43(%rip),%rcx        # 7d75b00 <queue>
   12cbd:	48 c1 e2 04          	shl    $0x4,%rdx
   12cc1:	4a 8d 04 2a          	lea    (%rdx,%r13,1),%rax
   12cc5:	4a 8d 54 2a 28       	lea    0x28(%rdx,%r13,1),%rdx
   12cca:	48 8b 44 01 18       	mov    0x18(%rcx,%rax,1),%rax
   12ccf:	48 01 ca             	add    %rcx,%rdx
   12cd2:	48 39 d0             	cmp    %rdx,%rax
   12cd5:	74 19                	je     12cf0 <queue_insert_from_fallback+0xb0>
   12cd7:	f2 41 0f 10 44 24 10 	movsd  0x10(%r12),%xmm0
   12cde:	eb 09                	jmp    12ce9 <queue_insert_from_fallback+0xa9>
   12ce0:	48 8b 40 18          	mov    0x18(%rax),%rax
   12ce4:	48 39 c2             	cmp    %rax,%rdx
   12ce7:	74 07                	je     12cf0 <queue_insert_from_fallback+0xb0>
   12ce9:	66 0f 2f 40 10       	comisd 0x10(%rax),%xmm0
   12cee:	73 f0                	jae    12ce0 <queue_insert_from_fallback+0xa0>
   12cf0:	48 8b 50 20          	mov    0x20(%rax),%rdx
   12cf4:	66 48 0f 6e c0       	movq   %rax,%xmm0
   12cf9:	66 48 0f 6e ca       	movq   %rdx,%xmm1
   12cfe:	66 0f 6c c1          	punpcklqdq %xmm1,%xmm0
   12d02:	41 0f 11 44 24 18    	movups %xmm0,0x18(%r12)
   12d08:	4c 89 62 18          	mov    %r12,0x18(%rdx)
   12d0c:	4c 89 60 20          	mov    %r12,0x20(%rax)
   12d10:	48 8b 44 24 08       	mov    0x8(%rsp),%rax
   12d15:	64 48 2b 04 25 28 00 00 00 	sub    %fs:0x28,%rax
   12d1e:	75 12                	jne    12d32 <queue_insert_from_fallback+0xf2>
   12d20:	48 83 c4 18          	add    $0x18,%rsp
   12d24:	48 89 ef             	mov    %rbp,%rdi
   12d27:	5b                   	pop    %rbx
   12d28:	5d                   	pop    %rbp
   12d29:	41 5c                	pop    %r12
   12d2b:	41 5d                	pop    %r13
   12d2d:	e9 5e f4 fe ff       	jmp    2190 <pthread_spin_unlock@plt>
   12d32:	e8 a9 f4 fe ff       	call   21e0 <__stack_chk_fail@plt>
   12d37:	66 0f 1f 84 00 00 00 00 00 	nopw   0x0(%rax,%rax,1)

0000000000012d40 <queue_insert_in_slot>:
   12d40:	41 55                	push   %r13
   12d42:	48 8d 05 b7 2d 06 00 	lea    0x62db7(%rip),%rax        # 75b00 <locks>
   12d49:	41 54                	push   %r12
   12d4b:	4c 63 e6             	movslq %esi,%r12
   12d4e:	55                   	push   %rbp
   12d4f:	53                   	push   %rbx
   12d50:	48 83 ec 18          	sub    $0x18,%rsp
   12d54:	48 63 2f             	movslq (%rdi),%rbp
   12d57:	64 4c 8b 2c 25 28 00 00 00 	mov    %fs:0x28,%r13
   12d60:	4c 89 6c 24 08       	mov    %r13,0x8(%rsp)
   12d65:	49 89 fd             	mov    %rdi,%r13
   12d68:	48 69 dd d0 07 00 00 	imul   $0x7d0,%rbp,%rbx
   12d6f:	48 69 ed 00 71 02 00 	imul   $0x27100,%rbp,%rbp
   12d76:	4c 01 e3             	add    %r12,%rbx
   12d79:	48 c1 e3 06          	shl    $0x6,%rbx
   12d7d:	48 01 c3             	add    %rax,%rbx
   12d80:	48 89 df             	mov    %rbx,%rdi
   12d83:	e8 c8 f2 fe ff       	call   2050 <pthread_spin_lock@plt>
   12d88:	4b 8d 14 a4          	lea    (%r12,%r12,4),%rdx
   12d8c:	48 8d 0d 6d 2d d6 07 	lea    0x7d62d6d(%rip),%rcx        # 7d75b00 <queue>
   12d93:	48 c1 e2 04          	shl    $0x4,%rdx
   12d97:	48 8d 04 2a          	lea    (%rdx,%rbp,1),%rax
   12d9b:	48 8d 54 2a 28       	lea    0x28(%rdx,%rbp,1),%rdx
   12da0:	48 8b 44 01 18       	mov    0x18(%rcx,%rax,1),%rax
   12da5:	48 01 ca             	add    %rcx,%rdx
   12da8:	48 39 d0             	cmp    %rdx,%rax
   12dab:	74 23                	je     12dd0 <queue_insert_in_slot+0x90>
   12dad:	f2 41 0f 10 45 10    	movsd  0x10(%r13),%xmm0
   12db3:	eb 14                	jmp    12dc9 <queue_insert_in_slot+0x89>
   12db5:	66 66 2e 0f 1f 84 00 00 00 00 00 	data16 cs nopw 0x0(%rax,%rax,1)
   12dc0:	48 8b 40 18          	mov    0x18(%rax),%rax
   12dc4:	48 39 c2             	cmp    %rax,%rdx
   12dc7:	74 07                	je     12dd0 <queue_insert_in_slot+0x90>
   12dc9:	66 0f 2f 40 10       	comisd 0x10(%rax),%xmm0
   12dce:	73 f0                	jae    12dc0 <queue_insert_in_slot+0x80>
   12dd0:	48 8b 50 20          	mov    0x20(%rax),%rdx
   12dd4:	66 48 0f 6e c0       	movq   %rax,%xmm0
   12dd9:	48 89 df             	mov    %rbx,%rdi
   12ddc:	66 48 0f 6e ca       	movq   %rdx,%xmm1
   12de1:	66 0f 6c c1          	punpcklqdq %xmm1,%xmm0
   12de5:	41 0f 11 45 18       	movups %xmm0,0x18(%r13)
   12dea:	4c 89 6a 18          	mov    %r13,0x18(%rdx)
   12dee:	4c 89 68 20          	mov    %r13,0x20(%rax)
   12df2:	e8 99 f3 fe ff       	call   2190 <pthread_spin_unlock@plt>
   12df7:	f0 48 83 05 c0 ac 04 00 01 	lock addq $0x1,0x4acc0(%rip)        # 5dac0 <pending_events>
   12e00:	48 8b 44 24 08       	mov    0x8(%rsp),%rax
   12e05:	64 48 2b 04 25 28 00 00 00 	sub    %fs:0x28,%rax
   12e0e:	75 0d                	jne    12e1d <queue_insert_in_slot+0xdd>
   12e10:	48 83 c4 18          	add    $0x18,%rsp
   12e14:	31 c0                	xor    %eax,%eax
   12e16:	5b                   	pop    %rbx
   12e17:	5d                   	pop    %rbp
   12e18:	41 5c                	pop    %r12
   12e1a:	41 5d                	pop    %r13
   12e1c:	c3                   	ret
   12e1d:	e8 be f3 fe ff       	call   21e0 <__stack_chk_fail@plt>
   12e22:	0f 1f 00             	nopl   (%rax)
   12e25:	66 66 2e 0f 1f 84 00 00 00 00 00 	data16 cs nopw 0x0(%rax,%rax,1)

0000000000012e30 <queue_insert>:
   12e30:	48 83 ec 38          	sub    $0x38,%rsp
   12e34:	f2 0f 10 47 10       	movsd  0x10(%rdi),%xmm0
   12e39:	64 48 8b 34 25 28 00 00 00 	mov    %fs:0x28,%rsi
   12e42:	48 89 74 24 28       	mov    %rsi,0x28(%rsp)
   12e47:	48 63 37             	movslq (%rdi),%rsi
   12e4a:	f2 0f 10 0d 7e ac 04 00 	movsd  0x4ac7e(%rip),%xmm1        # 5dad0 <current_min_limit>
   12e52:	66 0f 2f c8          	comisd %xmm0,%xmm1
   12e56:	0f 87 72 01 00 00    	ja     12fce <queue_insert+0x19e>
   12e5c:	f2 0f 10 0d 5c 43 04 00 	movsd  0x4435c(%rip),%xmm1        # 571c0 <current_max_limit>
   12e64:	48 89 fa             	mov    %rdi,%rdx
   12e67:	66 0f 2f c1          	comisd %xmm1,%xmm0
   12e6b:	72 5b                	jb     12ec8 <queue_insert+0x98>
   12e6d:	48 c7 47 18 00 00 00 00 	movq   $0x0,0x18(%rdi)
   12e75:	64 48 83 3c 25 d0 ef ff ff 00 	cmpq   $0x0,%fs:0xffffffffffffefd0
   12e7f:	0f 84 33 01 00 00    	je     12fb8 <queue_insert+0x188>
   12e85:	64 48 8b 04 25 d8 ef ff ff 	mov    %fs:0xffffffffffffefd8,%rax
   12e8e:	48 89 47 20          	mov    %rax,0x20(%rdi)
   12e92:	48 89 78 18          	mov    %rdi,0x18(%rax)
   12e96:	64 48 89 14 25 d8 ef ff ff 	mov    %rdx,%fs:0xffffffffffffefd8
   12e9f:	f0 48 83 05 18 ac 04 00 01 	lock addq $0x1,0x4ac18(%rip)        # 5dac0 <pending_events>
   12ea8:	31 c0                	xor    %eax,%eax
   12eaa:	48 8b 54 24 28       	mov    0x28(%rsp),%rdx
   12eaf:	64 48 2b 14 25 28 00 00 00 	sub    %fs:0x28,%rdx
   12eb8:	0f 85 33 01 00 00    	jne    12ff1 <queue_insert+0x1c1>
   12ebe:	48 83 c4 38          	add    $0x38,%rsp
   12ec2:	c3                   	ret
   12ec3:	0f 1f 44 00 00       	nopl   0x0(%rax,%rax,1)
   12ec8:	f2 0f 59 05 d8 f4 03 00 	mulsd  0x3f4d8(%rip),%xmm0        # 523a8 <_IO_stdin_used+0x13a8>
   12ed0:	48 89 7c 24 18       	mov    %rdi,0x18(%rsp)
   12ed5:	48 89 74 24 10       	mov    %rsi,0x10(%rsp)
   12eda:	f2 0f 2c c0          	cvttsd2si %xmm0,%eax
   12ede:	48 63 c8             	movslq %eax,%rcx
   12ee1:	89 c7                	mov    %eax,%edi
   12ee3:	48 69 c9 d3 4d 62 10 	imul   $0x10624dd3,%rcx,%rcx
   12eea:	c1 ff 1f             	sar    $0x1f,%edi
   12eed:	48 c1 f9 27          	sar    $0x27,%rcx
   12ef1:	29 f9                	sub    %edi,%ecx
   12ef3:	69 f9 d0 07 00 00    	imul   $0x7d0,%ecx,%edi
   12ef9:	29 f8                	sub    %edi,%eax
   12efb:	48 69 fe d0 07 00 00 	imul   $0x7d0,%rsi,%rdi
   12f02:	48 63 c8             	movslq %eax,%rcx
   12f05:	48 8d 05 f4 2b 06 00 	lea    0x62bf4(%rip),%rax        # 75b00 <locks>
   12f0c:	48 89 4c 24 08       	mov    %rcx,0x8(%rsp)
   12f11:	48 01 cf             	add    %rcx,%rdi
   12f14:	48 c1 e7 06          	shl    $0x6,%rdi
   12f18:	48 01 c7             	add    %rax,%rdi
   12f1b:	48 89 3c 24          	mov    %rdi,(%rsp)
   12f1f:	e8 2c f1 fe ff       	call   2050 <pthread_spin_lock@plt>
   12f24:	48 8b 4c 24 08       	mov    0x8(%rsp),%rcx
   12f29:	48 8b 3c 24          	mov    (%rsp),%rdi
   12f2d:	4c 8d 05 cc 2b d6 07 	lea    0x7d62bcc(%rip),%r8        # 7d75b00 <queue>
   12f34:	48 69 74 24 10 00 71 02 00 	imul   $0x27100,0x10(%rsp),%rsi
   12f3d:	48 8b 54 24 18       	mov    0x18(%rsp),%rdx
   12f42:	48 8d 0c 89          	lea    (%rcx,%rcx,4),%rcx
   12f46:	48 c1 e1 04          	shl    $0x4,%rcx
   12f4a:	48 8d 04 31          	lea    (%rcx,%rsi,1),%rax
   12f4e:	48 8d 4c 31 28       	lea    0x28(%rcx,%rsi,1),%rcx
   12f53:	49 8b 44 00 18       	mov    0x18(%r8,%rax,1),%rax
   12f58:	4c 01 c1             	add    %r8,%rcx
   12f5b:	48 39 c8             	cmp    %rcx,%rax
   12f5e:	74 20                	je     12f80 <queue_insert+0x150>
   12f60:	f2 0f 10 42 10       	movsd  0x10(%rdx),%xmm0
   12f65:	eb 12                	jmp    12f79 <queue_insert+0x149>
   12f67:	66 0f 1f 84 00 00 00 00 00 	nopw   0x0(%rax,%rax,1)
   12f70:	48 8b 40 18          	mov    0x18(%rax),%rax
   12f74:	48 39 c1             	cmp    %rax,%rcx
   12f77:	74 07                	je     12f80 <queue_insert+0x150>
   12f79:	66 0f 2f 40 10       	comisd 0x10(%rax),%xmm0
   12f7e:	73 f0                	jae    12f70 <queue_insert+0x140>
   12f80:	48 8b 48 20          	mov    0x20(%rax),%rcx
   12f84:	66 48 0f 6e c0       	movq   %rax,%xmm0
   12f89:	66 48 0f 6e d1       	movq   %rcx,%xmm2
   12f8e:	66 0f 6c c2          	punpcklqdq %xmm2,%xmm0
   12f92:	0f 11 42 18          	movups %xmm0,0x18(%rdx)
   12f96:	48 89 51 18          	mov    %rdx,0x18(%rcx)
   12f9a:	48 89 50 20          	mov    %rdx,0x20(%rax)
   12f9e:	e8 ed f1 fe ff       	call   2190 <pthread_spin_unlock@plt>
   12fa3:	f0 48 83 05 14 ab 04 00 01 	lock addq $0x1,0x4ab14(%rip)        # 5dac0 <pending_events>
   12fac:	e9 f7 fe ff ff       	jmp    12ea8 <queue_insert+0x78>
   12fb1:	0f 1f 80 00 00 00 00 	nopl   0x0(%rax)
   12fb8:	48 c7 47 20 00 00 00 00 	movq   $0x0,0x20(%rdi)
   12fc0:	64 48 89 3c 25 d0 ef ff ff 	mov    %rdi,%fs:0xffffffffffffefd0
   12fc9:	e9 c8 fe ff ff       	jmp    12e96 <queue_insert+0x66>
   12fce:	f2 0f 10 0d fa aa 04 00 	movsd  0x4aafa(%rip),%xmm1        # 5dad0 <current_min_limit>
   12fd6:	48 8d 3d db e3 03 00 	lea    0x3e3db(%rip),%rdi        # 513b8 <_IO_stdin_used+0x3b8>
   12fdd:	b8 02 00 00 00       	mov    $0x2,%eax
   12fe2:	e8 59 f0 fe ff       	call   2040 <printf@plt>
   12fe7:	b8 ff ff ff ff       	mov    $0xffffffff,%eax
   12fec:	e9 b9 fe ff ff       	jmp    12eaa <queue_insert+0x7a>
   12ff1:	e8 ea f1 fe ff       	call   21e0 <__stack_chk_fail@plt>
   12ff6:	66 2e 0f 1f 84 00 00 00 00 00 	cs nopw 0x0(%rax,%rax,1)

0000000000013000 <fallback_check>:
   13000:	41 57                	push   %r15
   13002:	41 56                	push   %r14
   13004:	41 55                	push   %r13
   13006:	41 54                	push   %r12
   13008:	55                   	push   %rbp
   13009:	53                   	push   %rbx
   1300a:	48 83 ec 18          	sub    $0x18,%rsp
   1300e:	64 4c 8b 2c 25 28 00 00 00 	mov    %fs:0x28,%r13
   13017:	4c 89 6c 24 08       	mov    %r13,0x8(%rsp)
   1301c:	64 4c 8b 2c 25 d0 ef ff ff 	mov    %fs:0xffffffffffffefd0,%r13
   13025:	4d 85 ed             	test   %r13,%r13
   13028:	0f 84 12 01 00 00    	je     13140 <fallback_check+0x140>
   1302e:	48 8d 2d cb 2a d6 07 	lea    0x7d62acb(%rip),%rbp        # 7d75b00 <queue>
   13035:	66 66 2e 0f 1f 84 00 00 00 00 00 	data16 cs nopw 0x0(%rax,%rax,1)
   13040:	4d 89 ee             	mov    %r13,%r14
   13043:	f2 0f 10 0d 75 41 04 00 	movsd  0x44175(%rip),%xmm1        # 571c0 <current_max_limit>
   1304b:	4d 8b 6d 18          	mov    0x18(%r13),%r13
   1304f:	f2 41 0f 10 46 10    	movsd  0x10(%r14),%xmm0
   13055:	66 0f 2f c8          	comisd %xmm0,%xmm1
   13059:	0f 86 d8 00 00 00    	jbe    13137 <fallback_check+0x137>
   1305f:	49 8b 46 20          	mov    0x20(%r14),%rax
   13063:	48 85 c0             	test   %rax,%rax
   13066:	0f 84 04 01 00 00    	je     13170 <fallback_check+0x170>
   1306c:	4c 89 68 18          	mov    %r13,0x18(%rax)
   13070:	4d 85 ed             	test   %r13,%r13
   13073:	0f 84 e7 00 00 00    	je     13160 <fallback_check+0x160>
   13079:	49 89 45 20          	mov    %rax,0x20(%r13)
   1307d:	f2 0f 59 05 23 f3 03 00 	mulsd  0x3f323(%rip),%xmm0        # 523a8 <_IO_stdin_used+0x13a8>
   13085:	4d 63 26             	movslq (%r14),%r12
   13088:	4d 69 fc d0 07 00 00 	imul   $0x7d0,%r12,%r15
   1308f:	f2 0f 2c c0          	cvttsd2si %xmm0,%eax
   13093:	48 63 d8             	movslq %eax,%rbx
   13096:	99                   	cltd
   13097:	48 69 db d3 4d 62 10 	imul   $0x10624dd3,%rbx,%rbx
   1309e:	48 c1 fb 27          	sar    $0x27,%rbx
   130a2:	29 d3                	sub    %edx,%ebx
   130a4:	69 d3 d0 07 00 00    	imul   $0x7d0,%ebx,%edx
   130aa:	29 d0                	sub    %edx,%eax
   130ac:	48 63 d8             	movslq %eax,%rbx
   130af:	48 8d 05 4a 2a 06 00 	lea    0x62a4a(%rip),%rax        # 75b00 <locks>
   130b6:	49 01 df             	add    %rbx,%r15
   130b9:	49 c1 e7 06          	shl    $0x6,%r15
   130bd:	49 01 c7             	add    %rax,%r15
   130c0:	4c 89 ff             	mov    %r15,%rdi
   130c3:	e8 88 ef fe ff       	call   2050 <pthread_spin_lock@plt>
   130c8:	49 69 d4 00 71 02 00 	imul   $0x27100,%r12,%rdx
   130cf:	48 8d 0c 9b          	lea    (%rbx,%rbx,4),%rcx
   130d3:	48 c1 e1 04          	shl    $0x4,%rcx
   130d7:	48 8d 04 11          	lea    (%rcx,%rdx,1),%rax
   130db:	48 8d 54 11 28       	lea    0x28(%rcx,%rdx,1),%rdx
   130e0:	48 8b 44 05 18       	mov    0x18(%rbp,%rax,1),%rax
   130e5:	48 01 ea             	add    %rbp,%rdx
   130e8:	48 39 d0             	cmp    %rdx,%rax
   130eb:	74 23                	je     13110 <fallback_check+0x110>
   130ed:	f2 41 0f 10 46 10    	movsd  0x10(%r14),%xmm0
   130f3:	eb 14                	jmp    13109 <fallback_check+0x109>
   130f5:	66 66 2e 0f 1f 84 00 00 00 00 00 	data16 cs nopw 0x0(%rax,%rax,1)
   13100:	48 8b 40 18          	mov    0x18(%rax),%rax
   13104:	48 39 c2             	cmp    %rax,%rdx
   13107:	74 07                	je     13110 <fallback_check+0x110>
   13109:	66 0f 2f 40 10       	comisd 0x10(%rax),%xmm0
   1310e:	73 f0                	jae    13100 <fallback_check+0x100>
   13110:	48 8b 50 20          	mov    0x20(%rax),%rdx
   13114:	66 48 0f 6e c0       	movq   %rax,%xmm0
   13119:	4c 89 ff             	mov    %r15,%rdi
   1311c:	66 48 0f 6e d2       	movq   %rdx,%xmm2
   13121:	66 0f 6c c2          	punpcklqdq %xmm2,%xmm0
   13125:	41 0f 11 46 18       	movups %xmm0,0x18(%r14)
   1312a:	4c 89 72 18          	mov    %r14,0x18(%rdx)
   1312e:	4c 89 70 20          	mov    %r14,0x20(%rax)
   13132:	e8 59 f0 fe ff       	call   2190 <pthread_spin_unlock@plt>
   13137:	4d 85 ed             	test   %r13,%r13
   1313a:	0f 85 00 ff ff ff    	jne    13040 <fallback_check+0x40>
   13140:	48 8b 44 24 08       	mov    0x8(%rsp),%rax
   13145:	64 48 2b 04 25 28 00 00 00 	sub    %fs:0x28,%rax
   1314e:	75 2e                	jne    1317e <fallback_check+0x17e>
   13150:	48 83 c4 18          	add    $0x18,%rsp
   13154:	5b                   	pop    %rbx
   13155:	5d                   	pop    %rbp
   13156:	41 5c                	pop    %r12
   13158:	41 5d                	pop    %r13
   1315a:	41 5e                	pop    %r14
   1315c:	41 5f                	pop    %r15
   1315e:	c3                   	ret
   1315f:	90                   	nop
   13160:	64 48 89 04 25 d8 ef ff ff 	mov    %rax,%fs:0xffffffffffffefd8
   13169:	e9 0f ff ff ff       	jmp    1307d <fallback_check+0x7d>
   1316e:	66 90                	xchg   %ax,%ax
   13170:	64 4c 89 2c 25 d0 ef ff ff 	mov    %r13,%fs:0xffffffffffffefd0
   13179:	e9 f2 fe ff ff       	jmp    13070 <fallback_check+0x70>
   1317e:	e8 5d f0 fe ff       	call   21e0 <__stack_chk_fail@plt>
   13183:	66 90                	xchg   %ax,%ax
   13185:	66 66 2e 0f 1f 84 00 00 00 00 00 	data16 cs nopw 0x0(%rax,%rax,1)

0000000000013190 <log_the_send>:
   13190:	55                   	push   %rbp
   13191:	48 89 fd             	mov    %rdi,%rbp
   13194:	53                   	push   %rbx
   13195:	89 f3                	mov    %esi,%ebx
   13197:	48 83 ec 28          	sub    $0x28,%rsp
   1319b:	f2 0f 11 44 24 08    	movsd  %xmm0,0x8(%rsp)
   131a1:	64 48 8b 3c 25 28 00 00 00 	mov    %fs:0x28,%rdi
   131aa:	48 89 7c 24 18       	mov    %rdi,0x18(%rsp)
   131af:	bf 20 00 00 00       	mov    $0x20,%edi
   131b4:	e8 17 ef fe ff       	call   20d0 <malloc@plt>
   131b9:	f2 0f 10 44 24 08    	movsd  0x8(%rsp),%xmm0
   131bf:	48 85 c0             	test   %rax,%rax
   131c2:	74 61                	je     13225 <log_the_send+0x95>
   131c4:	48 63 f3             	movslq %ebx,%rsi
   131c7:	48 8d 3d 12 a9 04 00 	lea    0x4a912(%rip),%rdi        # 5dae0 <log_queue>
   131ce:	48 89 28             	mov    %rbp,(%rax)
   131d1:	48 89 f2             	mov    %rsi,%rdx
   131d4:	48 c7 40 10 00 00 00 00 	movq   $0x0,0x10(%rax)
   131dc:	48 c1 e2 04          	shl    $0x4,%rdx
   131e0:	f2 0f 11 40 08       	movsd  %xmm0,0x8(%rax)
   131e5:	48 01 fa             	add    %rdi,%rdx
   131e8:	48 8b 4a 08          	mov    0x8(%rdx),%rcx
   131ec:	48 89 48 18          	mov    %rcx,0x18(%rax)
   131f0:	48 85 c9             	test   %rcx,%rcx
   131f3:	74 2b                	je     13220 <log_the_send+0x90>
   131f5:	48 89 41 10          	mov    %rax,0x10(%rcx)
   131f9:	48 c1 e6 04          	shl    $0x4,%rsi
   131fd:	48 89 44 37 08       	mov    %rax,0x8(%rdi,%rsi,1)
   13202:	48 8b 44 24 18       	mov    0x18(%rsp),%rax
   13207:	64 48 2b 04 25 28 00 00 00 	sub    %fs:0x28,%rax
   13210:	75 2b                	jne    1323d <log_the_send+0xad>
   13212:	48 83 c4 28          	add    $0x28,%rsp
   13216:	5b                   	pop    %rbx
   13217:	5d                   	pop    %rbp
   13218:	c3                   	ret
   13219:	0f 1f 80 00 00 00 00 	nopl   0x0(%rax)
   13220:	48 89 02             	mov    %rax,(%rdx)
   13223:	eb d4                	jmp    131f9 <log_the_send+0x69>
   13225:	48 8d 3d d4 e1 03 00 	lea    0x3e1d4(%rip),%rdi        # 51400 <_IO_stdin_used+0x400>
   1322c:	89 de                	mov    %ebx,%esi
   1322e:	e8 0d ee fe ff       	call   2040 <printf@plt>
   13233:	bf 01 00 00 00       	mov    $0x1,%edi
   13238:	e8 73 ee fe ff       	call   20b0 <exit@plt>
   1323d:	e8 9e ef fe ff       	call   21e0 <__stack_chk_fail@plt>
   13242:	0f 1f 00             	nopl   (%rax)
   13245:	66 66 2e 0f 1f 84 00 00 00 00 00 	data16 cs nopw 0x0(%rax,%rax,1)

0000000000013250 <flush_log>:
   13250:	41 54                	push   %r12
   13252:	55                   	push   %rbp
   13253:	48 63 ef             	movslq %edi,%rbp
   13256:	53                   	push   %rbx
   13257:	48 89 e8             	mov    %rbp,%rax
   1325a:	48 c1 e0 04          	shl    $0x4,%rax
   1325e:	48 83 ec 10          	sub    $0x10,%rsp
   13262:	64 4c 8b 24 25 28 00 00 00 	mov    %fs:0x28,%r12
   1326b:	4c 89 64 24 08       	mov    %r12,0x8(%rsp)
   13270:	4c 8d 25 69 a8 04 00 	lea    0x4a869(%rip),%r12        # 5dae0 <log_queue>
   13277:	49 8b 1c 04          	mov    (%r12,%rax,1),%rbx
   1327b:	48 85 db             	test   %rbx,%rbx
   1327e:	74 11                	je     13291 <flush_log+0x41>
   13280:	48 89 df             	mov    %rbx,%rdi
   13283:	48 8b 5b 10          	mov    0x10(%rbx),%rbx
   13287:	e8 a4 ee fe ff       	call   2130 <free@plt>
   1328c:	48 85 db             	test   %rbx,%rbx
   1328f:	75 ef                	jne    13280 <flush_log+0x30>
   13291:	48 c1 e5 04          	shl    $0x4,%rbp
   13295:	66 0f ef c0          	pxor   %xmm0,%xmm0
   13299:	41 0f 29 04 2c       	movaps %xmm0,(%r12,%rbp,1)
   1329e:	48 8b 44 24 08       	mov    0x8(%rsp),%rax
   132a3:	64 48 2b 04 25 28 00 00 00 	sub    %fs:0x28,%rax
   132ac:	75 09                	jne    132b7 <flush_log+0x67>
   132ae:	48 83 c4 10          	add    $0x10,%rsp
   132b2:	5b                   	pop    %rbx
   132b3:	5d                   	pop    %rbp
   132b4:	41 5c                	pop    %r12
   132b6:	c3                   	ret
   132b7:	e8 24 ef fe ff       	call   21e0 <__stack_chk_fail@plt>
   132bc:	0f 1f 40 00          	nopl   0x0(%rax)

00000000000132c0 <speculation_queue_insert>:
   132c0:	41 54                	push   %r12
   132c2:	55                   	push   %rbp
   132c3:	53                   	push   %rbx
   132c4:	48 83 ec 30          	sub    $0x30,%rsp
   132c8:	64 48 8b 1c 25 28 00 00 00 	mov    %fs:0x28,%rbx
   132d1:	48 89 5c 24 28       	mov    %rbx,0x28(%rsp)
   132d6:	48 89 fb             	mov    %rdi,%rbx
   132d9:	e8 12 2c 00 00       	call   15ef0 <get_current>
   132de:	41 89 c4             	mov    %eax,%r12d
   132e1:	8b 2b                	mov    (%rbx),%ebp
   132e3:	e8 48 2c 00 00       	call   15f30 <get_current_time>
   132e8:	f2 0f 10 53 10       	movsd  0x10(%rbx),%xmm2
   132ed:	f2 0f 11 43 08       	movsd  %xmm0,0x8(%rbx)
   132f2:	f2 0f 10 05 d6 a7 04 00 	movsd  0x4a7d6(%rip),%xmm0        # 5dad0 <current_min_limit>
   132fa:	66 0f 2f c2          	comisd %xmm2,%xmm0
   132fe:	0f 87 c3 03 00 00    	ja     136c7 <speculation_queue_insert+0x407>
   13304:	f2 0f 10 05 c4 a7 04 00 	movsd  0x4a7c4(%rip),%xmm0        # 5dad0 <current_min_limit>
   1330c:	f2 0f 58 05 8c f0 03 00 	addsd  0x3f08c(%rip),%xmm0        # 523a0 <_IO_stdin_used+0x13a0>
   13314:	66 0f 2f d0          	comisd %xmm0,%xmm2
   13318:	72 66                	jb     13380 <speculation_queue_insert+0xc0>
   1331a:	49 63 c4             	movslq %r12d,%rax
   1331d:	48 8d 0d dc 61 04 00 	lea    0x461dc(%rip),%rcx        # 59500 <speculation_queue>
   13324:	48 c7 43 18 00 00 00 00 	movq   $0x0,0x18(%rbx)
   1332c:	48 89 c2             	mov    %rax,%rdx
   1332f:	48 c1 e2 04          	shl    $0x4,%rdx
   13333:	48 01 ca             	add    %rcx,%rdx
   13336:	48 83 3a 00          	cmpq   $0x0,(%rdx)
   1333a:	0f 84 00 02 00 00    	je     13540 <speculation_queue_insert+0x280>
   13340:	48 8b 52 08          	mov    0x8(%rdx),%rdx
   13344:	48 89 53 20          	mov    %rdx,0x20(%rbx)
   13348:	48 89 5a 18          	mov    %rbx,0x18(%rdx)
   1334c:	48 c1 e0 04          	shl    $0x4,%rax
   13350:	48 89 5c 01 08       	mov    %rbx,0x8(%rcx,%rax,1)
   13355:	f0 48 83 05 62 a2 04 00 01 	lock addq $0x1,0x4a262(%rip)        # 5d5c0 <speculation_events>
   1335e:	31 c0                	xor    %eax,%eax
   13360:	48 8b 54 24 28       	mov    0x28(%rsp),%rdx
   13365:	64 48 2b 14 25 28 00 00 00 	sub    %fs:0x28,%rdx
   1336e:	0f 85 84 03 00 00    	jne    136f8 <speculation_queue_insert+0x438>
   13374:	48 83 c4 30          	add    $0x30,%rsp
   13378:	5b                   	pop    %rbx
   13379:	5d                   	pop    %rbp
   1337a:	41 5c                	pop    %r12
   1337c:	c3                   	ret
   1337d:	0f 1f 00             	nopl   (%rax)
   13380:	e8 ab 2b 00 00       	call   15f30 <get_current_time>
   13385:	bf 20 00 00 00       	mov    $0x20,%edi
   1338a:	f2 0f 11 44 24 08    	movsd  %xmm0,0x8(%rsp)
   13390:	e8 3b ed fe ff       	call   20d0 <malloc@plt>
   13395:	f2 0f 10 44 24 08    	movsd  0x8(%rsp),%xmm0
   1339b:	48 85 c0             	test   %rax,%rax
   1339e:	48 89 c2             	mov    %rax,%rdx
   133a1:	0f 84 56 03 00 00    	je     136fd <speculation_queue_insert+0x43d>
   133a7:	48 89 18             	mov    %rbx,(%rax)
   133aa:	48 8d 3d 2f a7 04 00 	lea    0x4a72f(%rip),%rdi        # 5dae0 <log_queue>
   133b1:	48 c7 40 10 00 00 00 00 	movq   $0x0,0x10(%rax)
   133b9:	f2 0f 11 40 08       	movsd  %xmm0,0x8(%rax)
   133be:	49 63 c4             	movslq %r12d,%rax
   133c1:	48 89 c1             	mov    %rax,%rcx
   133c4:	48 c1 e1 04          	shl    $0x4,%rcx
   133c8:	48 01 f9             	add    %rdi,%rcx
   133cb:	48 8b 71 08          	mov    0x8(%rcx),%rsi
   133cf:	48 89 72 18          	mov    %rsi,0x18(%rdx)
   133d3:	48 85 f6             	test   %rsi,%rsi
   133d6:	0f 84 a4 02 00 00    	je     13680 <speculation_queue_insert+0x3c0>
   133dc:	48 89 56 10          	mov    %rdx,0x10(%rsi)
   133e0:	48 c1 e0 04          	shl    $0x4,%rax
   133e4:	48 89 54 07 08       	mov    %rdx,0x8(%rdi,%rax,1)
   133e9:	89 ef                	mov    %ebp,%edi
   133eb:	e8 00 34 00 00       	call   167f0 <object_lock>
   133f0:	48 63 d5             	movslq %ebp,%rdx
   133f3:	f2 0f 10 43 10       	movsd  0x10(%rbx),%xmm0
   133f8:	48 8d 0d 81 d1 a3 11 	lea    0x11a3d181(%rip),%rcx        # 11a50580 <speculation>
   133ff:	48 8d 04 92          	lea    (%rdx,%rdx,4),%rax
   13403:	48 8d 04 c1          	lea    (%rcx,%rax,8),%rax
   13407:	f2 0f 10 08          	movsd  (%rax),%xmm1
   1340b:	66 0f 2f c8          	comisd %xmm0,%xmm1
   1340f:	0f 82 3b 01 00 00    	jb     13550 <speculation_queue_insert+0x290>
   13415:	8b 70 14             	mov    0x14(%rax),%esi
   13418:	85 f6                	test   %esi,%esi
   1341a:	0f 85 00 01 00 00    	jne    13520 <speculation_queue_insert+0x260>
   13420:	8b 48 1c             	mov    0x1c(%rax),%ecx
   13423:	c7 40 14 01 00 00 00 	movl   $0x1,0x14(%rax)
   1342a:	f2 0f 11 40 08       	movsd  %xmm0,0x8(%rax)
   1342f:	85 c9                	test   %ecx,%ecx
   13431:	0f 84 59 02 00 00    	je     13690 <speculation_queue_insert+0x3d0>
   13437:	f2 0f 59 05 69 ef 03 00 	mulsd  0x3ef69(%rip),%xmm0        # 523a8 <_IO_stdin_used+0x13a8>
   1343f:	f2 0f 2c c0          	cvttsd2si %xmm0,%eax
   13443:	48 63 d0             	movslq %eax,%rdx
   13446:	89 c1                	mov    %eax,%ecx
   13448:	48 69 d2 d3 4d 62 10 	imul   $0x10624dd3,%rdx,%rdx
   1344f:	c1 f9 1f             	sar    $0x1f,%ecx
   13452:	48 c1 fa 27          	sar    $0x27,%rdx
   13456:	29 ca                	sub    %ecx,%edx
   13458:	69 ca d0 07 00 00    	imul   $0x7d0,%edx,%ecx
   1345e:	29 c8                	sub    %ecx,%eax
   13460:	48 63 0b             	movslq (%rbx),%rcx
   13463:	48 63 d0             	movslq %eax,%rdx
   13466:	48 8d 05 93 26 06 00 	lea    0x62693(%rip),%rax        # 75b00 <locks>
   1346d:	4c 69 e1 d0 07 00 00 	imul   $0x7d0,%rcx,%r12
   13474:	48 89 4c 24 10       	mov    %rcx,0x10(%rsp)
   13479:	48 89 54 24 08       	mov    %rdx,0x8(%rsp)
   1347e:	49 01 d4             	add    %rdx,%r12
   13481:	49 c1 e4 06          	shl    $0x6,%r12
   13485:	49 01 c4             	add    %rax,%r12
   13488:	4c 89 e7             	mov    %r12,%rdi
   1348b:	e8 c0 eb fe ff       	call   2050 <pthread_spin_lock@plt>
   13490:	48 8b 54 24 08       	mov    0x8(%rsp),%rdx
   13495:	48 69 4c 24 10 00 71 02 00 	imul   $0x27100,0x10(%rsp),%rcx
   1349e:	48 8d 35 5b 26 d6 07 	lea    0x7d6265b(%rip),%rsi        # 7d75b00 <queue>
   134a5:	48 8d 14 92          	lea    (%rdx,%rdx,4),%rdx
   134a9:	48 c1 e2 04          	shl    $0x4,%rdx
   134ad:	48 8d 04 0a          	lea    (%rdx,%rcx,1),%rax
   134b1:	48 8d 54 0a 28       	lea    0x28(%rdx,%rcx,1),%rdx
   134b6:	48 8b 44 06 18       	mov    0x18(%rsi,%rax,1),%rax
   134bb:	48 01 f2             	add    %rsi,%rdx
   134be:	48 39 d0             	cmp    %rdx,%rax
   134c1:	74 1d                	je     134e0 <speculation_queue_insert+0x220>
   134c3:	f2 0f 10 43 10       	movsd  0x10(%rbx),%xmm0
   134c8:	eb 0f                	jmp    134d9 <speculation_queue_insert+0x219>
   134ca:	66 0f 1f 44 00 00    	nopw   0x0(%rax,%rax,1)
   134d0:	48 8b 40 18          	mov    0x18(%rax),%rax
   134d4:	48 39 c2             	cmp    %rax,%rdx
   134d7:	74 07                	je     134e0 <speculation_queue_insert+0x220>
   134d9:	66 0f 2f 40 10       	comisd 0x10(%rax),%xmm0
   134de:	73 f0                	jae    134d0 <speculation_queue_insert+0x210>
   134e0:	48 8b 50 20          	mov    0x20(%rax),%rdx
   134e4:	66 48 0f 6e c0       	movq   %rax,%xmm0
   134e9:	4c 89 e7             	mov    %r12,%rdi
   134ec:	66 48 0f 6e da       	movq   %rdx,%xmm3
   134f1:	66 0f 6c c3          	punpcklqdq %xmm3,%xmm0
   134f5:	0f 11 43 18          	movups %xmm0,0x18(%rbx)
   134f9:	48 89 5a 18          	mov    %rbx,0x18(%rdx)
   134fd:	48 89 58 20          	mov    %rbx,0x20(%rax)
   13501:	e8 8a ec fe ff       	call   2190 <pthread_spin_unlock@plt>
   13506:	f0 48 83 05 b1 a5 04 00 01 	lock addq $0x1,0x4a5b1(%rip)        # 5dac0 <pending_events>
   1350f:	89 ef                	mov    %ebp,%edi
   13511:	e8 2a 33 00 00       	call   16840 <object_unlock>
   13516:	e9 43 fe ff ff       	jmp    1335e <speculation_queue_insert+0x9e>
   1351b:	0f 1f 44 00 00       	nopl   0x0(%rax,%rax,1)
   13520:	f2 0f 10 48 08       	movsd  0x8(%rax),%xmm1
   13525:	66 0f 2f c8          	comisd %xmm0,%xmm1
   13529:	0f 86 08 ff ff ff    	jbe    13437 <speculation_queue_insert+0x177>
   1352f:	f2 0f 11 40 08       	movsd  %xmm0,0x8(%rax)
   13534:	e9 fe fe ff ff       	jmp    13437 <speculation_queue_insert+0x177>
   13539:	0f 1f 80 00 00 00 00 	nopl   0x0(%rax)
   13540:	48 c7 43 20 00 00 00 00 	movq   $0x0,0x20(%rbx)
   13548:	48 89 1a             	mov    %rbx,(%rdx)
   1354b:	e9 fc fd ff ff       	jmp    1334c <speculation_queue_insert+0x8c>
   13550:	f2 0f 59 05 50 ee 03 00 	mulsd  0x3ee50(%rip),%xmm0        # 523a8 <_IO_stdin_used+0x13a8>
   13558:	48 89 54 24 18       	mov    %rdx,0x18(%rsp)
   1355d:	f2 0f 2c c0          	cvttsd2si %xmm0,%eax
   13561:	4c 63 e0             	movslq %eax,%r12
   13564:	89 c6                	mov    %eax,%esi
   13566:	4d 69 e4 d3 4d 62 10 	imul   $0x10624dd3,%r12,%r12
   1356d:	c1 fe 1f             	sar    $0x1f,%esi
   13570:	49 c1 fc 27          	sar    $0x27,%r12
   13574:	41 29 f4             	sub    %esi,%r12d
   13577:	41 69 f4 d0 07 00 00 	imul   $0x7d0,%r12d,%esi
   1357e:	29 f0                	sub    %esi,%eax
   13580:	48 63 33             	movslq (%rbx),%rsi
   13583:	4c 63 e0             	movslq %eax,%r12
   13586:	48 8d 05 73 25 06 00 	lea    0x62573(%rip),%rax        # 75b00 <locks>
   1358d:	48 69 fe d0 07 00 00 	imul   $0x7d0,%rsi,%rdi
   13594:	48 89 74 24 10       	mov    %rsi,0x10(%rsp)
   13599:	4c 01 e7             	add    %r12,%rdi
   1359c:	48 c1 e7 06          	shl    $0x6,%rdi
   135a0:	48 01 c7             	add    %rax,%rdi
   135a3:	48 89 7c 24 08       	mov    %rdi,0x8(%rsp)
   135a8:	e8 a3 ea fe ff       	call   2050 <pthread_spin_lock@plt>
   135ad:	4f 8d 04 a4          	lea    (%r12,%r12,4),%r8
   135b1:	48 8b 7c 24 08       	mov    0x8(%rsp),%rdi
   135b6:	4c 8d 0d 43 25 d6 07 	lea    0x7d62543(%rip),%r9        # 7d75b00 <queue>
   135bd:	48 69 74 24 10 00 71 02 00 	imul   $0x27100,0x10(%rsp),%rsi
   135c6:	49 c1 e0 04          	shl    $0x4,%r8
   135ca:	48 8b 54 24 18       	mov    0x18(%rsp),%rdx
   135cf:	49 8d 04 30          	lea    (%r8,%rsi,1),%rax
   135d3:	49 8d 74 30 28       	lea    0x28(%r8,%rsi,1),%rsi
   135d8:	49 8b 44 01 18       	mov    0x18(%r9,%rax,1),%rax
   135dd:	4c 01 ce             	add    %r9,%rsi
   135e0:	48 39 f0             	cmp    %rsi,%rax
   135e3:	74 1b                	je     13600 <speculation_queue_insert+0x340>
   135e5:	f2 0f 10 43 10       	movsd  0x10(%rbx),%xmm0
   135ea:	eb 0d                	jmp    135f9 <speculation_queue_insert+0x339>
   135ec:	0f 1f 40 00          	nopl   0x0(%rax)
   135f0:	48 8b 40 18          	mov    0x18(%rax),%rax
   135f4:	48 39 c6             	cmp    %rax,%rsi
   135f7:	74 07                	je     13600 <speculation_queue_insert+0x340>
   135f9:	66 0f 2f 40 10       	comisd 0x10(%rax),%xmm0
   135fe:	73 f0                	jae    135f0 <speculation_queue_insert+0x330>
   13600:	48 8b 70 20          	mov    0x20(%rax),%rsi
   13604:	66 48 0f 6e c0       	movq   %rax,%xmm0
   13609:	48 89 54 24 08       	mov    %rdx,0x8(%rsp)
   1360e:	66 48 0f 6e e6       	movq   %rsi,%xmm4
   13613:	66 0f 6c c4          	punpcklqdq %xmm4,%xmm0
   13617:	0f 11 43 18          	movups %xmm0,0x18(%rbx)
   1361b:	48 89 5e 18          	mov    %rbx,0x18(%rsi)
   1361f:	48 89 58 20          	mov    %rbx,0x20(%rax)
   13623:	e8 68 eb fe ff       	call   2190 <pthread_spin_unlock@plt>
   13628:	f0 48 83 05 8f a4 04 00 01 	lock addq $0x1,0x4a48f(%rip)        # 5dac0 <pending_events>
   13631:	48 8d 0d 48 cf a3 11 	lea    0x11a3cf48(%rip),%rcx        # 11a50580 <speculation>
   13638:	48 8b 54 24 08       	mov    0x8(%rsp),%rdx
   1363d:	48 8d 04 92          	lea    (%rdx,%rdx,4),%rax
   13641:	8b 54 c1 1c          	mov    0x1c(%rcx,%rax,8),%edx
   13645:	85 d2                	test   %edx,%edx
   13647:	0f 85 c2 fe ff ff    	jne    1350f <speculation_queue_insert+0x24f>
   1364d:	83 7c c1 20 01       	cmpl   $0x1,0x20(%rcx,%rax,8)
   13652:	0f 85 b7 fe ff ff    	jne    1350f <speculation_queue_insert+0x24f>
   13658:	c7 44 c1 1c 01 00 00 00 	movl   $0x1,0x1c(%rcx,%rax,8)
   13660:	64 8b 14 25 c8 ef ff ff 	mov    %fs:0xffffffffffffefc8,%edx
   13668:	89 ef                	mov    %ebp,%edi
   1366a:	89 54 c1 10          	mov    %edx,0x10(%rcx,%rax,8)
   1366e:	e8 1d 32 00 00       	call   16890 <put_into_stack>
   13673:	e9 97 fe ff ff       	jmp    1350f <speculation_queue_insert+0x24f>
   13678:	0f 1f 84 00 00 00 00 00 	nopl   0x0(%rax,%rax,1)
   13680:	48 89 11             	mov    %rdx,(%rcx)
   13683:	e9 58 fd ff ff       	jmp    133e0 <speculation_queue_insert+0x120>
   13688:	0f 1f 84 00 00 00 00 00 	nopl   0x0(%rax,%rax,1)
   13690:	c7 40 1c 01 00 00 00 	movl   $0x1,0x1c(%rax)
   13697:	64 8b 14 25 c8 ef ff ff 	mov    %fs:0xffffffffffffefc8,%edx
   1369f:	44 89 e7             	mov    %r12d,%edi
   136a2:	89 50 10             	mov    %edx,0x10(%rax)
   136a5:	e8 76 32 00 00       	call   16920 <put_head_into_stack>
   136aa:	89 ef                	mov    %ebp,%edi
   136ac:	e8 df 31 00 00       	call   16890 <put_into_stack>
   136b1:	64 c7 04 25 00 ef ff ff ff ff ff ff 	movl   $0xffffffff,%fs:0xffffffffffffef00
   136bd:	f2 0f 10 43 10       	movsd  0x10(%rbx),%xmm0
   136c2:	e9 70 fd ff ff       	jmp    13437 <speculation_queue_insert+0x177>
   136c7:	f2 0f 10 0d 01 a4 04 00 	movsd  0x4a401(%rip),%xmm1        # 5dad0 <current_min_limit>
   136cf:	66 0f 28 c2          	movapd %xmm2,%xmm0
   136d3:	89 ee                	mov    %ebp,%esi
   136d5:	f2 0f 5c 0d c3 ec 03 00 	subsd  0x3ecc3(%rip),%xmm1        # 523a0 <_IO_stdin_used+0x13a0>
   136dd:	48 8d 3d 4c dd 03 00 	lea    0x3dd4c(%rip),%rdi        # 51430 <_IO_stdin_used+0x430>
   136e4:	b8 02 00 00 00       	mov    $0x2,%eax
   136e9:	e8 52 e9 fe ff       	call   2040 <printf@plt>
   136ee:	b8 ff ff ff ff       	mov    $0xffffffff,%eax
   136f3:	e9 68 fc ff ff       	jmp    13360 <speculation_queue_insert+0xa0>
   136f8:	e8 e3 ea fe ff       	call   21e0 <__stack_chk_fail@plt>
   136fd:	48 8d 3d fc dc 03 00 	lea    0x3dcfc(%rip),%rdi        # 51400 <_IO_stdin_used+0x400>
   13704:	44 89 e6             	mov    %r12d,%esi
   13707:	31 c0                	xor    %eax,%eax
   13709:	e8 32 e9 fe ff       	call   2040 <printf@plt>
   1370e:	bf 01 00 00 00       	mov    $0x1,%edi
   13713:	e8 98 e9 fe ff       	call   20b0 <exit@plt>
   13718:	0f 1f 84 00 00 00 00 00 	nopl   0x0(%rax,%rax,1)

0000000000013720 <speculation_queue_flush>:
   13720:	41 57                	push   %r15
   13722:	41 56                	push   %r14
   13724:	41 55                	push   %r13
   13726:	41 54                	push   %r12
   13728:	55                   	push   %rbp
   13729:	53                   	push   %rbx
   1372a:	48 83 ec 38          	sub    $0x38,%rsp
   1372e:	64 48 8b 04 25 28 00 00 00 	mov    %fs:0x28,%rax
   13737:	48 89 44 24 28       	mov    %rax,0x28(%rsp)
   1373c:	31 c0                	xor    %eax,%eax
   1373e:	66 90                	xchg   %ax,%ax
   13740:	41 bc 01 00 00 00    	mov    $0x1,%r12d
   13746:	f0 4c 0f c1 25 f1 a2 04 00 	lock xadd %r12,0x4a2f1(%rip)        # 5da40 <shadow_object_identifiers>
   1374f:	41 81 fc ff 03 00 00 	cmp    $0x3ff,%r12d
   13756:	0f 87 7a 02 00 00    	ja     139d6 <speculation_queue_flush+0x2b6>
   1375c:	44 89 e6             	mov    %r12d,%esi
   1375f:	48 8b 1d 4a ec 03 00 	mov    0x3ec4a(%rip),%rbx        # 523b0 <_IO_stdin_used+0x13b0>
   13766:	f2 0f 10 05 62 a3 04 00 	movsd  0x4a362(%rip),%xmm0        # 5dad0 <current_min_limit>
   1376e:	48 8d 05 0b ce a3 11 	lea    0x11a3ce0b(%rip),%rax        # 11a50580 <speculation>
   13775:	48 8d 14 b6          	lea    (%rsi,%rsi,4),%rdx
   13779:	f2 0f 58 05 1f ec 03 00 	addsd  0x3ec1f(%rip),%xmm0        # 523a0 <_IO_stdin_used+0x13a0>
   13781:	44 89 64 24 1c       	mov    %r12d,0x1c(%rsp)
   13786:	4d 63 e4             	movslq %r12d,%r12
   13789:	f2 0f 5c 05 27 ec 03 00 	subsd  0x3ec27(%rip),%xmm0        # 523b8 <_IO_stdin_used+0x13b8>
   13791:	48 89 5c d0 10       	mov    %rbx,0x10(%rax,%rdx,8)
   13796:	4c 8d 2d 43 a3 04 00 	lea    0x4a343(%rip),%r13        # 5dae0 <log_queue>
   1379d:	48 c7 44 d0 1c 00 00 00 00 	movq   $0x0,0x1c(%rax,%rdx,8)
   137a6:	48 c7 44 d0 08 00 00 00 00 	movq   $0x0,0x8(%rax,%rdx,8)
   137af:	48 8d 05 0a 1a 04 00 	lea    0x41a0a(%rip),%rax        # 551c0 <filter_message>
   137b6:	f2 0f 11 04 f0       	movsd  %xmm0,(%rax,%rsi,8)
   137bb:	4c 89 e0             	mov    %r12,%rax
   137be:	48 c1 e0 04          	shl    $0x4,%rax
   137c2:	48 89 74 24 10       	mov    %rsi,0x10(%rsp)
   137c7:	49 8b 5c 05 00       	mov    0x0(%r13,%rax,1),%rbx
   137cc:	48 85 db             	test   %rbx,%rbx
   137cf:	74 20                	je     137f1 <speculation_queue_flush+0xd1>
   137d1:	0f 1f 40 00          	nopl   0x0(%rax)
   137d5:	66 66 2e 0f 1f 84 00 00 00 00 00 	data16 cs nopw 0x0(%rax,%rax,1)
   137e0:	48 89 df             	mov    %rbx,%rdi
   137e3:	48 8b 5b 10          	mov    0x10(%rbx),%rbx
   137e7:	e8 44 e9 fe ff       	call   2130 <free@plt>
   137ec:	48 85 db             	test   %rbx,%rbx
   137ef:	75 ef                	jne    137e0 <speculation_queue_flush+0xc0>
   137f1:	48 8b 44 24 10       	mov    0x10(%rsp),%rax
   137f6:	49 c1 e4 04          	shl    $0x4,%r12
   137fa:	66 0f ef c0          	pxor   %xmm0,%xmm0
   137fe:	45 31 ff             	xor    %r15d,%r15d
   13801:	48 8d 15 f8 5c 04 00 	lea    0x45cf8(%rip),%rdx        # 59500 <speculation_queue>
   13808:	43 0f 29 44 25 00    	movaps %xmm0,0x0(%r13,%r12,1)
   1380e:	48 c1 e0 04          	shl    $0x4,%rax
   13812:	4c 8b 34 02          	mov    (%rdx,%rax,1),%r14
   13816:	4d 85 f6             	test   %r14,%r14
   13819:	0f 84 d6 01 00 00    	je     139f5 <speculation_queue_flush+0x2d5>
   1381f:	48 8d 1d da 22 d6 07 	lea    0x7d622da(%rip),%rbx        # 7d75b00 <queue>
   13826:	eb 49                	jmp    13871 <speculation_queue_flush+0x151>
   13828:	0f 1f 84 00 00 00 00 00 	nopl   0x0(%rax,%rax,1)
   13830:	64 48 83 3c 25 d0 ef ff ff 00 	cmpq   $0x0,%fs:0xffffffffffffefd0
   1383a:	0f 84 88 01 00 00    	je     139c8 <speculation_queue_flush+0x2a8>
   13840:	64 48 8b 04 25 d8 ef ff ff 	mov    %fs:0xffffffffffffefd8,%rax
   13849:	49 89 44 24 20       	mov    %rax,0x20(%r12)
   1384e:	4c 89 60 18          	mov    %r12,0x18(%rax)
   13852:	64 4c 89 24 25 d8 ef ff ff 	mov    %r12,%fs:0xffffffffffffefd8
   1385b:	f0 48 83 05 5c a2 04 00 01 	lock addq $0x1,0x4a25c(%rip)        # 5dac0 <pending_events>
   13864:	4d 85 f6             	test   %r14,%r14
   13867:	0f 84 1d 01 00 00    	je     1398a <speculation_queue_flush+0x26a>
   1386d:	41 83 c7 01          	add    $0x1,%r15d
   13871:	4d 89 f4             	mov    %r14,%r12
   13874:	f2 0f 10 0d 54 a2 04 00 	movsd  0x4a254(%rip),%xmm1        # 5dad0 <current_min_limit>
   1387c:	66 0f ef d2          	pxor   %xmm2,%xmm2
   13880:	4d 8b 76 18          	mov    0x18(%r14),%r14
   13884:	f2 41 0f 10 44 24 10 	movsd  0x10(%r12),%xmm0
   1388b:	49 63 2c 24          	movslq (%r12),%rbp
   1388f:	41 0f 11 54 24 18    	movups %xmm2,0x18(%r12)
   13895:	66 0f 2f c8          	comisd %xmm0,%xmm1
   13899:	0f 87 5b 01 00 00    	ja     139fa <speculation_queue_flush+0x2da>
   1389f:	f2 0f 10 0d 19 39 04 00 	movsd  0x43919(%rip),%xmm1        # 571c0 <current_max_limit>
   138a7:	66 0f 2f c1          	comisd %xmm1,%xmm0
   138ab:	73 83                	jae    13830 <speculation_queue_flush+0x110>
   138ad:	f2 0f 59 05 f3 ea 03 00 	mulsd  0x3eaf3(%rip),%xmm0        # 523a8 <_IO_stdin_used+0x13a8>
   138b5:	f2 0f 2c c0          	cvttsd2si %xmm0,%eax
   138b9:	48 63 c8             	movslq %eax,%rcx
   138bc:	89 c7                	mov    %eax,%edi
   138be:	48 69 c9 d3 4d 62 10 	imul   $0x10624dd3,%rcx,%rcx
   138c5:	c1 ff 1f             	sar    $0x1f,%edi
   138c8:	48 c1 f9 27          	sar    $0x27,%rcx
   138cc:	29 f9                	sub    %edi,%ecx
   138ce:	69 f9 d0 07 00 00    	imul   $0x7d0,%ecx,%edi
   138d4:	29 f8                	sub    %edi,%eax
   138d6:	48 69 fd d0 07 00 00 	imul   $0x7d0,%rbp,%rdi
   138dd:	48 63 c8             	movslq %eax,%rcx
   138e0:	48 8d 05 19 22 06 00 	lea    0x62219(%rip),%rax        # 75b00 <locks>
   138e7:	48 89 4c 24 08       	mov    %rcx,0x8(%rsp)
   138ec:	48 01 cf             	add    %rcx,%rdi
   138ef:	48 c1 e7 06          	shl    $0x6,%rdi
   138f3:	4c 8d 2c 07          	lea    (%rdi,%rax,1),%r13
   138f7:	4c 89 ef             	mov    %r13,%rdi
   138fa:	e8 51 e7 fe ff       	call   2050 <pthread_spin_lock@plt>
   138ff:	48 8b 4c 24 08       	mov    0x8(%rsp),%rcx
   13904:	48 69 f5 00 71 02 00 	imul   $0x27100,%rbp,%rsi
   1390b:	48 8d 0c 89          	lea    (%rcx,%rcx,4),%rcx
   1390f:	48 c1 e1 04          	shl    $0x4,%rcx
   13913:	48 8d 04 31          	lea    (%rcx,%rsi,1),%rax
   13917:	48 8d 4c 31 28       	lea    0x28(%rcx,%rsi,1),%rcx
   1391c:	48 8b 44 03 18       	mov    0x18(%rbx,%rax,1),%rax
   13921:	48 01 d9             	add    %rbx,%rcx
   13924:	48 39 c8             	cmp    %rcx,%rax
   13927:	74 27                	je     13950 <speculation_queue_flush+0x230>
   13929:	f2 41 0f 10 44 24 10 	movsd  0x10(%r12),%xmm0
   13930:	eb 17                	jmp    13949 <speculation_queue_flush+0x229>
   13932:	0f 1f 00             	nopl   (%rax)
   13935:	66 66 2e 0f 1f 84 00 00 00 00 00 	data16 cs nopw 0x0(%rax,%rax,1)
   13940:	48 8b 40 18          	mov    0x18(%rax),%rax
   13944:	48 39 c1             	cmp    %rax,%rcx
   13947:	74 07                	je     13950 <speculation_queue_flush+0x230>
   13949:	66 0f 2f 40 10       	comisd 0x10(%rax),%xmm0
   1394e:	73 f0                	jae    13940 <speculation_queue_flush+0x220>
   13950:	48 8b 48 20          	mov    0x20(%rax),%rcx
   13954:	66 48 0f 6e c0       	movq   %rax,%xmm0
   13959:	4c 89 ef             	mov    %r13,%rdi
   1395c:	66 48 0f 6e d9       	movq   %rcx,%xmm3
   13961:	66 0f 6c c3          	punpcklqdq %xmm3,%xmm0
   13965:	41 0f 11 44 24 18    	movups %xmm0,0x18(%r12)
   1396b:	4c 89 61 18          	mov    %r12,0x18(%rcx)
   1396f:	4c 89 60 20          	mov    %r12,0x20(%rax)
   13973:	e8 18 e8 fe ff       	call   2190 <pthread_spin_unlock@plt>
   13978:	f0 48 83 05 3f a1 04 00 01 	lock addq $0x1,0x4a13f(%rip)        # 5dac0 <pending_events>
   13981:	4d 85 f6             	test   %r14,%r14
   13984:	0f 85 e3 fe ff ff    	jne    1386d <speculation_queue_flush+0x14d>
   1398a:	45 89 f9             	mov    %r15d,%r9d
   1398d:	41 f7 d1             	not    %r9d
   13990:	4d 63 c9             	movslq %r9d,%r9
   13993:	f0 4c 01 0d 25 9c 04 00 	lock add %r9,0x49c25(%rip)        # 5d5c0 <speculation_events>
   1399b:	66 0f ef c0          	pxor   %xmm0,%xmm0
   1399f:	48 8d 05 5a 5b 04 00 	lea    0x45b5a(%rip),%rax        # 59500 <speculation_queue>
   139a6:	48 8b 6c 24 10       	mov    0x10(%rsp),%rbp
   139ab:	8b 7c 24 1c          	mov    0x1c(%rsp),%edi
   139af:	48 c1 e5 04          	shl    $0x4,%rbp
   139b3:	0f 29 04 28          	movaps %xmm0,(%rax,%rbp,1)
   139b7:	e8 24 2d 00 00       	call   166e0 <set_ckpt>
   139bc:	e9 7f fd ff ff       	jmp    13740 <speculation_queue_flush+0x20>
   139c1:	0f 1f 80 00 00 00 00 	nopl   0x0(%rax)
   139c8:	64 4c 89 24 25 d0 ef ff ff 	mov    %r12,%fs:0xffffffffffffefd0
   139d1:	e9 7c fe ff ff       	jmp    13852 <speculation_queue_flush+0x132>
   139d6:	48 8b 44 24 28       	mov    0x28(%rsp),%rax
   139db:	64 48 2b 04 25 28 00 00 00 	sub    %fs:0x28,%rax
   139e4:	75 34                	jne    13a1a <speculation_queue_flush+0x2fa>
   139e6:	48 83 c4 38          	add    $0x38,%rsp
   139ea:	5b                   	pop    %rbx
   139eb:	5d                   	pop    %rbp
   139ec:	41 5c                	pop    %r12
   139ee:	41 5d                	pop    %r13
   139f0:	41 5e                	pop    %r14
   139f2:	41 5f                	pop    %r15
   139f4:	c3                   	ret
   139f5:	45 31 c9             	xor    %r9d,%r9d
   139f8:	eb 99                	jmp    13993 <speculation_queue_flush+0x273>
   139fa:	f2 0f 10 0d ce a0 04 00 	movsd  0x4a0ce(%rip),%xmm1        # 5dad0 <current_min_limit>
   13a02:	89 ee                	mov    %ebp,%esi
   13a04:	b8 02 00 00 00       	mov    $0x2,%eax
   13a09:	48 8d 3d a8 d9 03 00 	lea    0x3d9a8(%rip),%rdi        # 513b8 <_IO_stdin_used+0x3b8>
   13a10:	e8 2b e6 fe ff       	call   2040 <printf@plt>
   13a15:	e9 4a fe ff ff       	jmp    13864 <speculation_queue_flush+0x144>
   13a1a:	e8 c1 e7 fe ff       	call   21e0 <__stack_chk_fail@plt>
   13a1f:	90                   	nop

0000000000013a20 <queue_extract>:
   13a20:	41 57                	push   %r15
   13a22:	41 56                	push   %r14
   13a24:	41 55                	push   %r13
   13a26:	41 54                	push   %r12
   13a28:	55                   	push   %rbp
   13a29:	53                   	push   %rbx
   13a2a:	48 83 ec 28          	sub    $0x28,%rsp
   13a2e:	64 48 8b 3c 25 28 00 00 00 	mov    %fs:0x28,%rdi
   13a37:	48 89 7c 24 18       	mov    %rdi,0x18(%rsp)
   13a3c:	64 8b 3c 25 00 ef ff ff 	mov    %fs:0xffffffffffffef00,%edi
   13a44:	83 ff ff             	cmp    $0xffffffff,%edi
   13a47:	0f 84 f3 04 00 00    	je     13f40 <queue_extract+0x520>
   13a4d:	4c 8d 35 2c cb a3 11 	lea    0x11a3cb2c(%rip),%r14        # 11a50580 <speculation>
   13a54:	83 ff ff             	cmp    $0xffffffff,%edi
   13a57:	0f 84 bd 02 00 00    	je     13d1a <queue_extract+0x2fa>
   13a5d:	44 8b 05 64 9b 04 00 	mov    0x49b64(%rip),%r8d        # 5d5c8 <end>
   13a64:	45 85 c0             	test   %r8d,%r8d
   13a67:	0f 85 e3 03 00 00    	jne    13e50 <queue_extract+0x430>
   13a6d:	4c 8d 25 8c 20 06 00 	lea    0x6208c(%rip),%r12        # 75b00 <locks>
   13a74:	81 ff ff 03 00 00    	cmp    $0x3ff,%edi
   13a7a:	0f 87 b8 01 00 00    	ja     13c38 <queue_extract+0x218>
   13a80:	e8 6b 2d 00 00       	call   167f0 <object_lock>
   13a85:	64 8b 04 25 00 ef ff ff 	mov    %fs:0xffffffffffffef00,%eax
   13a8d:	64 8b 0c 25 c8 ef ff ff 	mov    %fs:0xffffffffffffefc8,%ecx
   13a95:	48 8d 14 80          	lea    (%rax,%rax,4),%rdx
   13a99:	48 89 c7             	mov    %rax,%rdi
   13a9c:	49 8d 14 d6          	lea    (%r14,%rdx,8),%rdx
   13aa0:	8b 72 1c             	mov    0x1c(%rdx),%esi
   13aa3:	85 f6                	test   %esi,%esi
   13aa5:	0f 85 55 02 00 00    	jne    13d00 <queue_extract+0x2e0>
   13aab:	c7 42 1c 01 00 00 00 	movl   $0x1,0x1c(%rdx)
   13ab2:	89 4a 10             	mov    %ecx,0x10(%rdx)
   13ab5:	48 8d 14 80          	lea    (%rax,%rax,4),%rdx
   13ab9:	49 8d 14 d6          	lea    (%r14,%rdx,8),%rdx
   13abd:	8b 4a 14             	mov    0x14(%rdx),%ecx
   13ac0:	c7 42 20 01 00 00 00 	movl   $0x1,0x20(%rdx)
   13ac7:	85 c9                	test   %ecx,%ecx
   13ac9:	0f 85 61 02 00 00    	jne    13d30 <queue_extract+0x310>
   13acf:	e8 6c 2d 00 00       	call   16840 <object_unlock>
   13ad4:	64 8b 3c 25 00 ef ff ff 	mov    %fs:0xffffffffffffef00,%edi
   13adc:	e8 0f 2d 00 00       	call   167f0 <object_lock>
   13ae1:	64 8b 14 25 00 ef ff ff 	mov    %fs:0xffffffffffffef00,%edx
   13ae9:	64 48 63 2c 25 e0 ef ff ff 	movslq %fs:0xffffffffffffefe0,%rbp
   13af2:	48 69 da 00 71 02 00 	imul   $0x27100,%rdx,%rbx
   13af9:	48 8d 44 ad 00       	lea    0x0(%rbp,%rbp,4),%rax
   13afe:	48 89 d7             	mov    %rdx,%rdi
   13b01:	48 c1 e0 04          	shl    $0x4,%rax
   13b05:	48 01 c3             	add    %rax,%rbx
   13b08:	48 8d 05 f1 1f d6 07 	lea    0x7d61ff1(%rip),%rax        # 7d75b00 <queue>
   13b0f:	4c 8d 6c 18 28       	lea    0x28(%rax,%rbx,1),%r13
   13b14:	48 01 c3             	add    %rax,%rbx
   13b17:	4c 39 6b 18          	cmp    %r13,0x18(%rbx)
   13b1b:	0f 84 8f 02 00 00    	je     13db0 <queue_extract+0x390>
   13b21:	e8 1a 2d 00 00       	call   16840 <object_unlock>
   13b26:	64 8b 3c 25 00 ef ff ff 	mov    %fs:0xffffffffffffef00,%edi
   13b2e:	e8 bd 2c 00 00       	call   167f0 <object_lock>
   13b33:	64 8b 04 25 00 ef ff ff 	mov    %fs:0xffffffffffffef00,%eax
   13b3b:	48 8d 14 80          	lea    (%rax,%rax,4),%rdx
   13b3f:	48 89 c7             	mov    %rax,%rdi
   13b42:	41 83 7c d6 14 01    	cmpl   $0x1,0x14(%r14,%rdx,8)
   13b48:	75 49                	jne    13b93 <queue_extract+0x173>
   13b4a:	e9 61 03 00 00       	jmp    13eb0 <queue_extract+0x490>
   13b4f:	90                   	nop
   13b50:	49 8b 47 18          	mov    0x18(%r15),%rax
   13b54:	66 0f ef c0          	pxor   %xmm0,%xmm0
   13b58:	48 89 43 18          	mov    %rax,0x18(%rbx)
   13b5c:	48 89 58 20          	mov    %rbx,0x20(%rax)
   13b60:	41 0f 11 47 18       	movups %xmm0,0x18(%r15)
   13b65:	e8 26 e6 fe ff       	call   2190 <pthread_spin_unlock@plt>
   13b6a:	41 8b 47 04          	mov    0x4(%r15),%eax
   13b6e:	85 c0                	test   %eax,%eax
   13b70:	0f 84 e2 02 00 00    	je     13e58 <queue_extract+0x438>
   13b76:	49 8d bf e0 fd ff ff 	lea    -0x220(%r15),%rdi
   13b7d:	e8 ae e5 fe ff       	call   2130 <free@plt>
   13b82:	f0 48 83 2d 35 9f 04 00 01 	lock subq $0x1,0x49f35(%rip)        # 5dac0 <pending_events>
   13b8b:	64 8b 04 25 00 ef ff ff 	mov    %fs:0xffffffffffffef00,%eax
   13b93:	48 69 f8 d0 07 00 00 	imul   $0x7d0,%rax,%rdi
   13b9a:	48 01 ef             	add    %rbp,%rdi
   13b9d:	48 c1 e7 06          	shl    $0x6,%rdi
   13ba1:	4c 01 e7             	add    %r12,%rdi
   13ba4:	e8 a7 e4 fe ff       	call   2050 <pthread_spin_lock@plt>
   13ba9:	64 8b 3c 25 00 ef ff ff 	mov    %fs:0xffffffffffffef00,%edi
   13bb1:	4c 8b 7b 18          	mov    0x18(%rbx),%r15
   13bb5:	48 69 ff d0 07 00 00 	imul   $0x7d0,%rdi,%rdi
   13bbc:	48 01 ef             	add    %rbp,%rdi
   13bbf:	48 c1 e7 06          	shl    $0x6,%rdi
   13bc3:	4c 01 e7             	add    %r12,%rdi
   13bc6:	4d 39 ef             	cmp    %r13,%r15
   13bc9:	75 85                	jne    13b50 <queue_extract+0x130>
   13bcb:	e8 c0 e5 fe ff       	call   2190 <pthread_spin_unlock@plt>
   13bd0:	64 8b 04 25 00 ef ff ff 	mov    %fs:0xffffffffffffef00,%eax
   13bd8:	48 89 c7             	mov    %rax,%rdi
   13bdb:	48 8d 04 80          	lea    (%rax,%rax,4),%rax
   13bdf:	49 8d 04 c6          	lea    (%r14,%rax,8),%rax
   13be3:	8b 50 18             	mov    0x18(%rax),%edx
   13be6:	85 d2                	test   %edx,%edx
   13be8:	0f 85 ac 04 00 00    	jne    1409a <queue_extract+0x67a>
   13bee:	c7 40 1c 00 00 00 00 	movl   $0x0,0x1c(%rax)
   13bf5:	c7 40 10 ff ff ff ff 	movl   $0xffffffff,0x10(%rax)
   13bfc:	e8 3f 2c 00 00       	call   16840 <object_unlock>
   13c01:	64 48 8b 04 25 00 00 00 00 	mov    %fs:0x0,%rax
   13c0a:	48 8d b8 00 ef ff ff 	lea    -0x1100(%rax),%rdi
   13c11:	e8 da 2d 00 00       	call   169f0 <get_from_stack>
   13c16:	8b 05 ac 99 04 00    	mov    0x499ac(%rip),%eax        # 5d5c8 <end>
   13c1c:	85 c0                	test   %eax,%eax
   13c1e:	0f 85 2c 02 00 00    	jne    13e50 <queue_extract+0x430>
   13c24:	64 8b 3c 25 00 ef ff ff 	mov    %fs:0xffffffffffffef00,%edi
   13c2c:	81 ff ff 03 00 00    	cmp    $0x3ff,%edi
   13c32:	0f 86 48 fe ff ff    	jbe    13a80 <queue_extract+0x60>
   13c38:	64 48 8b 04 25 00 00 00 00 	mov    %fs:0x0,%rax
   13c41:	48 8d b8 00 ef ff ff 	lea    -0x1100(%rax),%rdi
   13c48:	e8 a3 2d 00 00       	call   169f0 <get_from_stack>
   13c4d:	85 c0                	test   %eax,%eax
   13c4f:	75 c5                	jne    13c16 <queue_extract+0x1f6>
   13c51:	e8 fe 1a 00 00       	call   15754 <barrier>
   13c56:	4c 8d 2d 83 de 04 00 	lea    0x4de83(%rip),%r13        # 61ae0 <retractable_queue>
   13c5d:	0f 1f 00             	nopl   (%rax)
   13c60:	bd 01 00 00 00       	mov    $0x1,%ebp
   13c65:	f0 48 0f c1 2d 92 9d 04 00 	lock xadd %rbp,0x49d92(%rip)        # 5da00 <retractable_object_identifiers>
   13c6e:	81 fd ff 03 00 00    	cmp    $0x3ff,%ebp
   13c74:	0f 87 fe 02 00 00    	ja     13f78 <queue_extract+0x558>
   13c7a:	89 ed                	mov    %ebp,%ebp
   13c7c:	4c 8d 64 ad 00       	lea    0x0(%rbp,%rbp,4),%r12
   13c81:	49 c1 e4 04          	shl    $0x4,%r12
   13c85:	4c 89 e0             	mov    %r12,%rax
   13c88:	4c 89 64 24 08       	mov    %r12,0x8(%rsp)
   13c8d:	4f 8b 64 25 18       	mov    0x18(%r13,%r12,1),%r12
   13c92:	49 8d 5c 05 28       	lea    0x28(%r13,%rax,1),%rbx
   13c97:	49 39 dc             	cmp    %rbx,%r12
   13c9a:	0f 84 38 03 00 00    	je     13fd8 <queue_extract+0x5b8>
   13ca0:	45 31 ff             	xor    %r15d,%r15d
   13ca3:	66 90                	xchg   %ax,%ax
   13ca5:	66 66 2e 0f 1f 84 00 00 00 00 00 	data16 cs nopw 0x0(%rax,%rax,1)
   13cb0:	49 8d bc 24 e0 fd ff ff 	lea    -0x220(%r12),%rdi
   13cb8:	4d 8b 64 24 18       	mov    0x18(%r12),%r12
   13cbd:	e8 6e e4 fe ff       	call   2130 <free@plt>
   13cc2:	44 89 f9             	mov    %r15d,%ecx
   13cc5:	41 83 c7 01          	add    $0x1,%r15d
   13cc9:	4c 39 e3             	cmp    %r12,%rbx
   13ccc:	75 e2                	jne    13cb0 <queue_extract+0x290>
   13cce:	f7 d1                	not    %ecx
   13cd0:	48 63 c9             	movslq %ecx,%rcx
   13cd3:	f0 48 01 0d a5 98 04 00 	lock add %rcx,0x498a5(%rip)        # 5d580 <retractable_events>
   13cdb:	4c 8b 64 24 08       	mov    0x8(%rsp),%r12
   13ce0:	48 8d 44 ad 00       	lea    0x0(%rbp,%rbp,4),%rax
   13ce5:	4d 01 ec             	add    %r13,%r12
   13ce8:	48 c1 e0 04          	shl    $0x4,%rax
   13cec:	49 89 5c 05 18       	mov    %rbx,0x18(%r13,%rax,1)
   13cf1:	4d 89 64 05 48       	mov    %r12,0x48(%r13,%rax,1)
   13cf6:	e9 65 ff ff ff       	jmp    13c60 <queue_extract+0x240>
   13cfb:	0f 1f 44 00 00       	nopl   0x0(%rax,%rax,1)
   13d00:	39 4a 10             	cmp    %ecx,0x10(%rdx)
   13d03:	0f 84 ac fd ff ff    	je     13ab5 <queue_extract+0x95>
   13d09:	e8 32 2b 00 00       	call   16840 <object_unlock>
   13d0e:	64 c7 04 25 00 ef ff ff ff ff ff ff 	movl   $0xffffffff,%fs:0xffffffffffffef00
   13d1a:	64 48 63 14 25 a8 ef ff ff 	movslq %fs:0xffffffffffffefa8,%rdx
   13d23:	48 8d 35 d6 98 04 00 	lea    0x498d6(%rip),%rsi        # 5d600 <object_identifiers_vector>
   13d2a:	e9 c5 01 00 00       	jmp    13ef4 <queue_extract+0x4d4>
   13d2f:	90                   	nop
   13d30:	f2 0f 10 42 08       	movsd  0x8(%rdx),%xmm0
   13d35:	f2 0f 10 0d 93 9d 04 00 	movsd  0x49d93(%rip),%xmm1        # 5dad0 <current_min_limit>
   13d3d:	c7 42 14 00 00 00 00 	movl   $0x0,0x14(%rdx)
   13d44:	f2 0f 11 0a          	movsd  %xmm1,(%rdx)
   13d48:	66 0f 28 c8          	movapd %xmm0,%xmm1
   13d4c:	f2 0f 5c 0d 64 e6 03 00 	subsd  0x3e664(%rip),%xmm1        # 523b8 <_IO_stdin_used+0x13b8>
   13d54:	48 8d 15 65 14 04 00 	lea    0x41465(%rip),%rdx        # 551c0 <filter_message>
   13d5b:	f2 0f 11 44 24 08    	movsd  %xmm0,0x8(%rsp)
   13d61:	f2 0f 11 0c c2       	movsd  %xmm1,(%rdx,%rax,8)
   13d66:	e8 d5 2a 00 00       	call   16840 <object_unlock>
   13d6b:	f2 0f 10 44 24 08    	movsd  0x8(%rsp),%xmm0
   13d71:	66 0f ef c9          	pxor   %xmm1,%xmm1
   13d75:	66 0f 2f c1          	comisd %xmm1,%xmm0
   13d79:	0f 86 55 fd ff ff    	jbe    13ad4 <queue_extract+0xb4>
   13d7f:	64 8b 3c 25 00 ef ff ff 	mov    %fs:0xffffffffffffef00,%edi
   13d87:	e8 14 2d 00 00       	call   16aa0 <run_rollback>
   13d8c:	64 83 3c 25 00 ef ff ff ff 	cmpl   $0xffffffff,%fs:0xffffffffffffef00
   13d95:	0f 84 66 fe ff ff    	je     13c01 <queue_extract+0x1e1>
   13d9b:	f0 48 83 05 9c 97 04 00 01 	lock addq $0x1,0x4979c(%rip)        # 5d540 <rollbacks>
   13da4:	e9 2b fd ff ff       	jmp    13ad4 <queue_extract+0xb4>
   13da9:	0f 1f 80 00 00 00 00 	nopl   0x0(%rax)
   13db0:	48 8d 04 92          	lea    (%rdx,%rdx,4),%rax
   13db4:	41 c7 44 c6 1c 00 00 00 00 	movl   $0x0,0x1c(%r14,%rax,8)
   13dbd:	41 c7 44 c6 10 ff ff ff ff 	movl   $0xffffffff,0x10(%r14,%rax,8)
   13dc6:	e8 75 2a 00 00       	call   16840 <object_unlock>
   13dcb:	64 48 8b 04 25 00 00 00 00 	mov    %fs:0x0,%rax
   13dd4:	48 8d b8 00 ef ff ff 	lea    -0x1100(%rax),%rdi
   13ddb:	e8 10 2c 00 00       	call   169f0 <get_from_stack>
   13de0:	85 c0                	test   %eax,%eax
   13de2:	0f 85 2e fe ff ff    	jne    13c16 <queue_extract+0x1f6>
   13de8:	64 48 63 14 25 a8 ef ff ff 	movslq %fs:0xffffffffffffefa8,%rdx
   13df1:	48 8d 35 08 98 04 00 	lea    0x49808(%rip),%rsi        # 5d600 <object_identifiers_vector>
   13df8:	b8 01 00 00 00       	mov    $0x1,%eax
   13dfd:	f0 48 0f c1 04 d6    	lock xadd %rax,(%rsi,%rdx,8)
   13e03:	64 48 63 14 25 a8 ef ff ff 	movslq %fs:0xffffffffffffefa8,%rdx
   13e0c:	64 48 8b 0c 25 c0 ef ff ff 	mov    %fs:0xffffffffffffefc0,%rcx
   13e15:	64 89 04 25 00 ef ff ff 	mov    %eax,%fs:0xffffffffffffef00
   13e1d:	3b 04 91             	cmp    (%rcx,%rdx,4),%eax
   13e20:	0f 83 ce 00 00 00    	jae    13ef4 <queue_extract+0x4d4>
   13e26:	64 48 8b 0c 25 b8 ef ff ff 	mov    %fs:0xffffffffffffefb8,%rcx
   13e2f:	03 04 91             	add    (%rcx,%rdx,4),%eax
   13e32:	64 89 04 25 00 ef ff ff 	mov    %eax,%fs:0xffffffffffffef00
   13e3a:	8b 05 88 97 04 00    	mov    0x49788(%rip),%eax        # 5d5c8 <end>
   13e40:	85 c0                	test   %eax,%eax
   13e42:	0f 84 dc fd ff ff    	je     13c24 <queue_extract+0x204>
   13e48:	0f 1f 84 00 00 00 00 00 	nopl   0x0(%rax,%rax,1)
   13e50:	45 31 ff             	xor    %r15d,%r15d
   13e53:	eb 2c                	jmp    13e81 <queue_extract+0x461>
   13e55:	0f 1f 00             	nopl   (%rax)
   13e58:	64 8b 04 25 00 ef ff ff 	mov    %fs:0xffffffffffffef00,%eax
   13e60:	f2 41 0f 10 47 10    	movsd  0x10(%r15),%xmm0
   13e66:	48 89 c7             	mov    %rax,%rdi
